--- !tapi-tbd-v2
archs:           [ i386, x86_64 ]
uuids:           [ 'i386: 24E649BE-E40F-3080-AC36-71FA52F17912', 'x86_64: C69A01C1-3B50-3E96-A533-D898425279BA' ]
platform:        ios
install-name:    /System/Library/Frameworks/SceneKit.framework/SceneKit
current-version: 432.3
objc-constraint: none
exports:         
  - archs:           [ i386 ]
    objc-classes:    [ _SCN3DDisplayRenderingTechnique, _SCNHeadMountedDisplayRenderingTechnique ]
  - archs:           [ x86_64 ]
    symbols:         [ __Z11_mm_reallocPvmmm, __Z14_hitTestResultPK17btCollisionObjectRK9btVector3S4_, 
                       __Z14_recreateProxyP15btDynamicsWorldP11btRigidBodymmm, __Z16__planeIntersectDv3_ffS_S_, 
                       __Z17__intersectSphereDv3_ffS_S_, __Z17__preTickCallbackP15btDynamicsWorldf, 
                       __Z17addMorphAnimationPU36objcproto25MDLMorphDeformerComponent11objc_objectP7SCNNodeP12NSDictionary, 
                       __Z18__slideWithinWorldP15__C3DConstraintP18__C3DEngineContextP18__C3DCullingSystemP9__C3DNodefDv3_fS7_, 
                       __Z19C3DSubdivCreateMeshP26C3DSubdivCPUPrimvarContextPK26C3DGeometrySubdivisionInfoPN10OpenSubdiv6v3_1_13Far15TopologyRefinerEPNS6_14PrimvarRefinerEP9__C3DMesh, 
                       __Z19CheckPolygonContactRK8TriangleRKDv3_fS4_ffU13block_pointerFvfS1_S4_E, 
                       __Z19__setCollisionShapeP11btRigidBodyP16btCollisionShapedPDv3_f, 
                       __Z19_createShapeForNodeP9__C3DNodeP12NSDictionary, __Z19scn_matrix_multiplyP13simd_float4x4S_S_, 
                       __Z20createFloatAnimationP8NSStringRKNSt3__16vectorIdNS1_9allocatorIdEEEERNS2_IfNS3_IfEEEE, 
                       __Z21_C3DImageToMDLTextureP10__C3DImageb, __Z21__collisionMaskOptionP12NSDictionary, 
                       __Z21__fillMeshElementInfoP16__C3DMeshElementPPKhRiS4_R14PHY_ScalarType, 
                       __Z21_createShapeForEntityP11__C3DEntityP12NSDictionary, __Z21flattenLightsInMeshes13simd_float4x4P9MDLObjectP14NSMutableArray, 
                       __Z21flattenObjectInMeshes13simd_float4x4P9MDLObjectP14NSMutableArray, 
                       __Z22C3DSubdivCreateRefinerPK26C3DGeometrySubdivisionInfo, 
                       __Z23C3DConstraintSliderInitP15__C3DConstraintP25__C3DConstraintControllerPKv, 
                       __Z23C3DSubdivFeedCPUPrimvarP26C3DSubdivCPUPrimvarContextPK26C3DGeometrySubdivisionInfoPN10OpenSubdiv6v3_1_13Far15TopologyRefinerE, 
                       __Z23_C3DConvexPolyhedronSetP21__C3DConvexPolyhedronPKDv3_fiPKii, 
                       __Z23_createShapeForGeometryP13__C3DGeometryP12NSDictionary, 
                       __Z23_indexedGeometryElementP10MDLSubmesh, __Z24C3DConstraintApplySliderP18__C3DEngineContextP25__C3DConstraintControllerPKvP16__C3DModelTargetf, 
                       __Z24__closestPointOnTriangleDv3_fS_S_S_, __Z25C3DCullingSystemGetTypeIDv, 
                       __Z25C3DTransformTreeGetTypeIDv, __Z25scn_matrix_multiply_batchP13simd_float4x4PKS_S2_j, 
                       __Z25scn_matrix_multiply_batchP13simd_float4x4PKS_S_j, __Z25scn_matrix_multiply_batchP13simd_float4x4S_PKS_j, 
                       __Z26_createConvexHullForEntityP11__C3DEntity, __Z26scn_matrix_transpose_batchP13simd_float3x4PK13simd_float4x4j, 
                       __Z27SCNPhysicsShapeDestroyShapeP16btCollisionShape, __Z27_createMeshInterfaceForMeshP9__C3DMesh, 
                       __Z27morpherFromMDLMorphDeformerPU36objcproto25MDLMorphDeformerComponent11objc_object, 
                       __Z28_createShapeForArrayOfShapesP7NSArrayS0_, __Z28scn_plane_intersect_3_planes9scn_planeS_S_PDv3_f, 
                       __Z29C3DPhysicsWorldAddBodyToWorldP15btDynamicsWorldP11btRigidBodyP9__C3DNodemmm, 
                       __Z29_createMeshInterfaceForEntityP11__C3DEntity, __Z29jointNodesFromMDLSkinDeformerPU35objcproto24MDLSkinDeformerComponent11objc_objectP19NSMutableDictionaryIP8NSStringP7SCNNodeE, 
                       __Z30C3DGeometryOsdGetColorDataType28C3DSubdivPrimvarDataTypeHash, 
                       __Z30C3DSubdivInitCPUPrimvarContextP26C3DSubdivCPUPrimvarContextPK26C3DGeometrySubdivisionInfoP9__C3DMesh, 
                       __Z30C3DSubdivInitGPUPrimvarContextP26C3DSubdivGPUPrimvarContextPK26C3DGeometrySubdivisionInfoP9__C3DMesh, 
                       __Z30C3DSubdivInterpolateCPUPrimvarP26C3DSubdivCPUPrimvarContextPK26C3DGeometrySubdivisionInfoPN10OpenSubdiv6v3_1_13Far15TopologyRefinerEPNS6_14PrimvarRefinerE, 
                       __Z30FlattenedMDLLightsFromMDLAssetP8MDLAsset, __Z30FlattenedMDLMeshesFromMDLAssetP8MDLAsset, 
                       __Z30__modifyCollisionFlagsFromTypeP11btRigidBodyl, __Z30_createConcaveTriMeshForEntityP11__C3DEntity, 
                       __Z30boneIndicesFromMDLSkinDeformerPU35objcproto24MDLSkinDeformerComponent11objc_objectP7MDLMesh, 
                       __Z30boneWeightsFromMDLSkinDeformerPU35objcproto24MDLSkinDeformerComponent11objc_objectP7MDLMesh, 
                       __Z31C3DConstraintApplyAvoidOccluderP18__C3DEngineContextP25__C3DConstraintControllerPKvP16__C3DModelTargetf, 
                       __Z31C3DGeometryOsdGetColorIsVarying28C3DSubdivPrimvarDataTypeHash, 
                       __Z31_createConstraintFromDefinitionPK14_HingeJointDef, __Z31_createConstraintFromDefinitionPK15_SliderJointDef, 
                       __Z31_createConstraintFromDefinitionPK18_ConeTwistJointDef, 
                       __Z31_createConstraintFromDefinitionPK19_BallSocketJointDef, 
                       __Z33C3DConstraintSliderCopyTargetPathP15__C3DConstraint, 
                       __Z33C3DContraintSliderAppendDebugInfoP15__C3DConstraintPKv, 
                       __Z33C3DSubdivDestroyCPUPrimvarContextP26C3DSubdivCPUPrimvarContext, 
                       __Z33C3DSubdivDestroyGPUPrimvarContextP26C3DSubdivGPUPrimvarContext, 
                       __Z34C3DPhysicsWorldRemoveBodyFromWorldP15btDynamicsWorldP11btRigidBody, 
                       __Z34C3DTransformTreeGetWorldTransformsP18__C3DTransformTree, 
                       __Z35C3DGeometryOsdGetColorIsFaceVarying28C3DSubdivPrimvarDataTypeHash, 
                       __Z35SCNGetGraphicsPerformanceStatisticsv, __Z36C3DGeometryDestroySubdivTopologyInfoP29C3DGeometrySubdivTopologyInfo, 
                       __Z37C3DPhysicsShapeGetDefaultShapeForNodeP9__C3DNode, __Z39C3DPhysicsShapeGetDefaultShapeForEntityP11__C3DEntity10SCNVector3, 
                       __Z40C3DConstraintAvoidOccluderCopyTargetPathP15__C3DConstraint, 
                       __Z40boneInverseTransformsFromMDLSkinDeformerPU35objcproto24MDLSkinDeformerComponent11objc_object, 
                       __Z41C3DGeometryInitSubdivTopologyInfoIfNeededP13__C3DGeometry, 
                       __Z42C3DGeometryMeshElementsSupportsSubdivisionP13__C3DGeometry, 
                       __Z42C3DTransformTreeGetLastFrameWorldTransformP18__C3DTransformTreei, 
                       __Z43C3DGeometryOsdGetTextureCoordinatesDataType28C3DSubdivPrimvarDataTypeHashh, 
                       __Z47C3DGeometryOsdGetVaryingTextureCoordinatesCount28C3DSubdivPrimvarDataTypeHash, 
                       __Z48C3DSubdivCPUPrimvarDataCopyDataAtIndexFromSourceIDv2_fEv20C3DMeshSourceContentiRNSt3__16vectorI16C3DSubdivCPUDataIT_ENS2_9allocatorIS6_EEEEi, 
                       __Z48C3DSubdivCPUPrimvarDataCopyDataAtIndexFromSourceIDv3_fEv20C3DMeshSourceContentiRNSt3__16vectorI16C3DSubdivCPUDataIT_ENS2_9allocatorIS6_EEEEi, 
                       __Z48C3DSubdivCPUPrimvarDataCopyDataAtIndexFromSourceIDv4_fEv20C3DMeshSourceContentiRNSt3__16vectorI16C3DSubdivCPUDataIT_ENS2_9allocatorIS6_EEEEi, 
                       __Z50C3DGeometrySubdivTopologyInfoInitCreasesAndCornersPK26C3DGeometrySubdivisionInfoP9__C3DMesh, 
                       __Z51C3DGeometryOsdGetFaceVaryingTextureCoordinatesCount28C3DSubdivPrimvarDataTypeHash, 
                       __Z53C3DSubdivCPUPrimvarDataCopyDataAtIndexToBufferAtIndexIDv2_fEvRNSt3__16vectorI16C3DSubdivCPUDataIT_ENS1_9allocatorIS5_EEEEi11C3DTypedPtri, 
                       __Z53C3DSubdivCPUPrimvarDataCopyDataAtIndexToBufferAtIndexIDv3_fEvRNSt3__16vectorI16C3DSubdivCPUDataIT_ENS1_9allocatorIS5_EEEEi11C3DTypedPtri, 
                       __Z53C3DSubdivCPUPrimvarDataCopyDataAtIndexToBufferAtIndexIDv4_fEvRNSt3__16vectorI16C3DSubdivCPUDataIT_ENS1_9allocatorIS5_EEEEi11C3DTypedPtri, 
                       __Z58C3DSubdivComputeUniformlySubdividedElementToFaceRangeTablePN10OpenSubdiv6v3_1_13Far15TopologyRefinerEP9__C3DMeshPNSt3__16vectorI7CFRangeNS6_9allocatorIS8_EEEE, 
                       __Z68C3DSubdivCPUPrimvarDataCopyCrossNormalizedDataAtIndexToBufferAtIndexIDv2_fEvRNSt3__16vectorI16C3DSubdivCPUDataIT_ENS1_9allocatorIS5_EEEES9_iPfi, 
                       __Z68C3DSubdivCPUPrimvarDataCopyCrossNormalizedDataAtIndexToBufferAtIndexIDv3_fEvRNSt3__16vectorI16C3DSubdivCPUDataIT_ENS1_9allocatorIS5_EEEES9_iPfi, 
                       __Z68C3DSubdivCPUPrimvarDataCopyCrossNormalizedDataAtIndexToBufferAtIndexIDv4_fEvRNSt3__16vectorI16C3DSubdivCPUDataIT_ENS1_9allocatorIS5_EEEES9_iPfi, 
                       __ZN10OpenSubdiv6v3_1_13Far15TopologyRefiner11appendLevelERNS0_3Vtr8internal5LevelE, 
                       __ZN10OpenSubdiv6v3_1_13Far15TopologyRefiner13RefineUniformENS2_14UniformOptionsE, 
                       __ZN10OpenSubdiv6v3_1_13Far15TopologyRefiner14RefineAdaptiveENS2_15AdaptiveOptionsE, 
                       __ZN10OpenSubdiv6v3_1_13Far15TopologyRefiner15updateInventoryERKNS0_3Vtr8internal5LevelE, 
                       __ZN10OpenSubdiv6v3_1_13Far15TopologyRefiner16appendRefinementERNS0_3Vtr8internal10RefinementE, 
                       __ZN10OpenSubdiv6v3_1_13Far15TopologyRefiner17assembleFarLevelsEv, 
                       __ZN10OpenSubdiv6v3_1_13Far15TopologyRefiner19initializeInventoryEv, 
                       __ZN10OpenSubdiv6v3_1_13Far15TopologyRefiner31selectFeatureAdaptiveComponentsERNS0_3Vtr8internal14SparseSelectorERKNS1_8internal11FeatureMaskE, 
                       __ZN10OpenSubdiv6v3_1_13Far15TopologyRefiner8UnrefineEv, __ZN10OpenSubdiv6v3_1_13Far15TopologyRefinerC1ENS0_3Sdc10SchemeTypeENS3_7OptionsE, 
                       __ZN10OpenSubdiv6v3_1_13Far15TopologyRefinerC2ENS0_3Sdc10SchemeTypeENS3_7OptionsE, 
                       __ZN10OpenSubdiv6v3_1_13Far15TopologyRefinerD1Ev, __ZN10OpenSubdiv6v3_1_13Far15TopologyRefinerD2Ev, 
                       __ZN10OpenSubdiv6v3_1_13Far16SetErrorCallbackEPFvNS1_9ErrorTypeEPKcE, 
                       __ZN10OpenSubdiv6v3_1_13Far18SetWarningCallbackEPFvPKcE, __ZN10OpenSubdiv6v3_1_13Far18TopologyDescriptorC1Ev, 
                       __ZN10OpenSubdiv6v3_1_13Far18TopologyDescriptorC2Ev, __ZN10OpenSubdiv6v3_1_13Far22TopologyRefinerFactoryINS1_18TopologyDescriptorEE19assignComponentTagsERNS1_15TopologyRefinerERKS3_, 
                       __ZN10OpenSubdiv6v3_1_13Far22TopologyRefinerFactoryINS1_18TopologyDescriptorEE21reportInvalidTopologyENS0_3Vtr8internal5Level13TopologyErrorEPKcRKS3_, 
                       __ZN10OpenSubdiv6v3_1_13Far22TopologyRefinerFactoryINS1_18TopologyDescriptorEE23assignComponentTopologyERNS1_15TopologyRefinerERKS3_, 
                       __ZN10OpenSubdiv6v3_1_13Far22TopologyRefinerFactoryINS1_18TopologyDescriptorEE23resizeComponentTopologyERNS1_15TopologyRefinerERKS3_, 
                       __ZN10OpenSubdiv6v3_1_13Far22TopologyRefinerFactoryINS1_18TopologyDescriptorEE25assignFaceVaryingTopologyERNS1_15TopologyRefinerERKS3_, 
                       __ZN10OpenSubdiv6v3_1_13Far26TopologyRefinerFactoryBase26prepareFaceVaryingChannelsERNS1_15TopologyRefinerE, 
                       __ZN10OpenSubdiv6v3_1_13Far26TopologyRefinerFactoryBase30prepareComponentTopologySizingERNS1_15TopologyRefinerE, 
                       __ZN10OpenSubdiv6v3_1_13Far26TopologyRefinerFactoryBase32prepareComponentTagsAndSharpnessERNS1_15TopologyRefinerE, 
                       __ZN10OpenSubdiv6v3_1_13Far26TopologyRefinerFactoryBase34prepareComponentTopologyAssignmentERNS1_15TopologyRefinerEbPFvNS0_3Vtr8internal5Level13TopologyErrorEPKcPKvESC_, 
                       __ZN10OpenSubdiv6v3_1_13Far5ErrorENS1_9ErrorTypeEPKcz, __ZN10OpenSubdiv6v3_1_13Far7WarningEPKcz, 
                       __ZN10OpenSubdiv6v3_1_13Far8internal11FeatureMask14ReduceFeaturesERKNS1_15TopologyRefiner15AdaptiveOptionsE, 
                       __ZN10OpenSubdiv6v3_1_13Far8internal11FeatureMask18InitializeFeaturesERKNS1_15TopologyRefiner15AdaptiveOptionsENS0_3Sdc10SchemeTypeE, 
                       __ZN10OpenSubdiv6v3_1_13Sdc16SchemeTypeTraits18GetRegularFaceSizeENS1_10SchemeTypeE, 
                       __ZN10OpenSubdiv6v3_1_13Sdc16SchemeTypeTraits23GetRegularVertexValenceENS1_10SchemeTypeE, 
                       __ZN10OpenSubdiv6v3_1_13Sdc16SchemeTypeTraits23GetTopologicalSplitTypeENS1_10SchemeTypeE, 
                       __ZN10OpenSubdiv6v3_1_13Sdc16SchemeTypeTraits24GetLocalNeighborhoodSizeENS1_10SchemeTypeE, 
                       __ZN10OpenSubdiv6v3_1_13Sdc16SchemeTypeTraits7GetNameENS1_10SchemeTypeE, 
                       __ZN10OpenSubdiv6v3_1_13Sdc6Crease16SHARPNESS_SMOOTHE, __ZN10OpenSubdiv6v3_1_13Sdc6Crease18SHARPNESS_INFINITEE, 
                       __ZN10OpenSubdiv6v3_1_13Vtr8internal10Refinement17subdivideTopologyERKNS3_9RelationsE, 
                       __ZN10OpenSubdiv6v3_1_13Vtr8internal10Refinement21subdivideFVarChannelsEv, 
                       __ZN10OpenSubdiv6v3_1_13Vtr8internal10Refinement22markSparseEdgeChildrenEv, 
                       __ZN10OpenSubdiv6v3_1_13Vtr8internal10Refinement22populateEdgeTagVectorsEv, 
                       __ZN10OpenSubdiv6v3_1_13Vtr8internal10Refinement22populateFaceTagVectorsEv, 
                       __ZN10OpenSubdiv6v3_1_13Vtr8internal10Refinement22propagateComponentTagsEv, 
                       __ZN10OpenSubdiv6v3_1_13Vtr8internal10Refinement22subdivideEdgeSharpnessEv, 
                       __ZN10OpenSubdiv6v3_1_13Vtr8internal10Refinement24markSparseVertexChildrenEv, 
                       __ZN10OpenSubdiv6v3_1_13Vtr8internal10Refinement24populateVertexTagVectorsEv, 
                       __ZN10OpenSubdiv6v3_1_13Vtr8internal10Refinement24subdivideSharpnessValuesEv, 
                       __ZN10OpenSubdiv6v3_1_13Vtr8internal10Refinement24subdivideVertexSharpnessEv, 
                       __ZN10OpenSubdiv6v3_1_13Vtr8internal10Refinement25populateEdgeParentVectorsEPA4_KNS3_8ChildTagE, 
                       __ZN10OpenSubdiv6v3_1_13Vtr8internal10Refinement25populateFaceParentVectorsEPA4_KNS3_8ChildTagE, 
                       __ZN10OpenSubdiv6v3_1_13Vtr8internal10Refinement26populateParentChildIndicesEv, 
                       __ZN10OpenSubdiv6v3_1_13Vtr8internal10Refinement27populateVertexParentVectorsEPA4_KNS3_8ChildTagE, 
                       __ZN10OpenSubdiv6v3_1_13Vtr8internal10Refinement27reclassifySemisharpVerticesEv, 
                       __ZN10OpenSubdiv6v3_1_13Vtr8internal10Refinement28populateChildToParentMappingEv, 
                       __ZN10OpenSubdiv6v3_1_13Vtr8internal10Refinement28populateParentToChildMappingEv, 
                       __ZN10OpenSubdiv6v3_1_13Vtr8internal10Refinement29initializeSparseSelectionTagsEv, 
                       __ZN10OpenSubdiv6v3_1_13Vtr8internal10Refinement30initializeChildComponentCountsEv, 
                       __ZN10OpenSubdiv6v3_1_13Vtr8internal10Refinement31markSparseChildComponentIndicesEv, 
                       __ZN10OpenSubdiv6v3_1_13Vtr8internal10Refinement31populateEdgeTagsFromParentEdgesEv, 
                       __ZN10OpenSubdiv6v3_1_13Vtr8internal10Refinement31populateEdgeTagsFromParentFacesEv, 
                       __ZN10OpenSubdiv6v3_1_13Vtr8internal10Refinement31populateFaceTagsFromParentFacesEv, 
                       __ZN10OpenSubdiv6v3_1_13Vtr8internal10Refinement33populateEdgeParentFromParentEdgesEPA4_KNS3_8ChildTagE, 
                       __ZN10OpenSubdiv6v3_1_13Vtr8internal10Refinement33populateEdgeParentFromParentFacesEPA4_KNS3_8ChildTagE, 
                       __ZN10OpenSubdiv6v3_1_13Vtr8internal10Refinement33populateFaceParentFromParentFacesEPA4_KNS3_8ChildTagE, 
                       __ZN10OpenSubdiv6v3_1_13Vtr8internal10Refinement33populateVertexTagsFromParentEdgesEv, 
                       __ZN10OpenSubdiv6v3_1_13Vtr8internal10Refinement33populateVertexTagsFromParentFacesEv, 
                       __ZN10OpenSubdiv6v3_1_13Vtr8internal10Refinement35populateVertexParentFromParentEdgesEPA4_KNS3_8ChildTagE, 
                       __ZN10OpenSubdiv6v3_1_13Vtr8internal10Refinement35populateVertexParentFromParentFacesEPA4_KNS3_8ChildTagE, 
                       __ZN10OpenSubdiv6v3_1_13Vtr8internal10Refinement36populateVertexTagsFromParentVerticesEv, 
                       __ZN10OpenSubdiv6v3_1_13Vtr8internal10Refinement38populateVertexParentFromParentVerticesEPA4_KNS3_8ChildTagE, 
                       __ZN10OpenSubdiv6v3_1_13Vtr8internal10Refinement6refineENS3_7OptionsE, 
                       __ZN10OpenSubdiv6v3_1_13Vtr8internal10RefinementC2ERKNS2_5LevelERS4_RKNS0_3Sdc7OptionsE, 
                       __ZN10OpenSubdiv6v3_1_13Vtr8internal10RefinementD0Ev, __ZN10OpenSubdiv6v3_1_13Vtr8internal10RefinementD1Ev, 
                       __ZN10OpenSubdiv6v3_1_13Vtr8internal10RefinementD2Ev, __ZN10OpenSubdiv6v3_1_13Vtr8internal13TriRefinement22markSparseFaceChildrenEv, 
                       __ZN10OpenSubdiv6v3_1_13Vtr8internal13TriRefinement24populateEdgeFaceRelationEv, 
                       __ZN10OpenSubdiv6v3_1_13Vtr8internal13TriRefinement24populateFaceEdgeRelationEv, 
                       __ZN10OpenSubdiv6v3_1_13Vtr8internal13TriRefinement26allocateParentChildIndicesEv, 
                       __ZN10OpenSubdiv6v3_1_13Vtr8internal13TriRefinement26populateEdgeVertexRelationEv, 
                       __ZN10OpenSubdiv6v3_1_13Vtr8internal13TriRefinement26populateFaceVertexRelationEv, 
                       __ZN10OpenSubdiv6v3_1_13Vtr8internal13TriRefinement26populateVertexEdgeRelationEv, 
                       __ZN10OpenSubdiv6v3_1_13Vtr8internal13TriRefinement26populateVertexFaceRelationEv, 
                       __ZN10OpenSubdiv6v3_1_13Vtr8internal13TriRefinement32populateEdgeFacesFromParentEdgesEv, 
                       __ZN10OpenSubdiv6v3_1_13Vtr8internal13TriRefinement32populateEdgeFacesFromParentFacesEv, 
                       __ZN10OpenSubdiv6v3_1_13Vtr8internal13TriRefinement32populateFaceEdgesFromParentFacesEv, 
                       __ZN10OpenSubdiv6v3_1_13Vtr8internal13TriRefinement34populateFaceVertexCountsAndOffsetsEv, 
                       __ZN10OpenSubdiv6v3_1_13Vtr8internal13TriRefinement34populateVertexEdgesFromParentEdgesEv, 
                       __ZN10OpenSubdiv6v3_1_13Vtr8internal13TriRefinement34populateVertexFacesFromParentEdgesEv, 
                       __ZN10OpenSubdiv6v3_1_13Vtr8internal13TriRefinement35populateEdgeVerticesFromParentEdgesEv, 
                       __ZN10OpenSubdiv6v3_1_13Vtr8internal13TriRefinement35populateEdgeVerticesFromParentFacesEv, 
                       __ZN10OpenSubdiv6v3_1_13Vtr8internal13TriRefinement35populateFaceVerticesFromParentFacesEv, 
                       __ZN10OpenSubdiv6v3_1_13Vtr8internal13TriRefinement37populateVertexEdgesFromParentVerticesEv, 
                       __ZN10OpenSubdiv6v3_1_13Vtr8internal13TriRefinement37populateVertexFacesFromParentVerticesEv, 
                       __ZN10OpenSubdiv6v3_1_13Vtr8internal13TriRefinementC1ERKNS2_5LevelERS4_RKNS0_3Sdc7OptionsE, 
                       __ZN10OpenSubdiv6v3_1_13Vtr8internal13TriRefinementC2ERKNS2_5LevelERS4_RKNS0_3Sdc7OptionsE, 
                       __ZN10OpenSubdiv6v3_1_13Vtr8internal13TriRefinementD0Ev, __ZN10OpenSubdiv6v3_1_13Vtr8internal13TriRefinementD1Ev, 
                       __ZN10OpenSubdiv6v3_1_13Vtr8internal13TriRefinementD2Ev, __ZN10OpenSubdiv6v3_1_13Vtr8internal14FVarRefinement15applyRefinementEv, 
                       __ZN10OpenSubdiv6v3_1_13Vtr8internal14FVarRefinement17propagateEdgeTagsEv, 
                       __ZN10OpenSubdiv6v3_1_13Vtr8internal14FVarRefinement18propagateValueTagsEv, 
                       __ZN10OpenSubdiv6v3_1_13Vtr8internal14FVarRefinement19populateChildValuesEv, 
                       __ZN10OpenSubdiv6v3_1_13Vtr8internal14FVarRefinement21propagateValueCreasesEv, 
                       __ZN10OpenSubdiv6v3_1_13Vtr8internal14FVarRefinement25reclassifySemisharpValuesEv, 
                       __ZN10OpenSubdiv6v3_1_13Vtr8internal14FVarRefinement26trimAndFinalizeChildValuesEv, 
                       __ZN10OpenSubdiv6v3_1_13Vtr8internal14FVarRefinement30estimateAndAllocateChildValuesEv, 
                       __ZN10OpenSubdiv6v3_1_13Vtr8internal14FVarRefinement35populateChildValuesFromEdgeVerticesEv, 
                       __ZN10OpenSubdiv6v3_1_13Vtr8internal14FVarRefinement35populateChildValuesFromFaceVerticesEv, 
                       __ZN10OpenSubdiv6v3_1_13Vtr8internal14FVarRefinement37populateChildValuesFromVertexVerticesEv, 
                       __ZN10OpenSubdiv6v3_1_13Vtr8internal14FVarRefinementC1ERKNS2_10RefinementERNS2_9FVarLevelES8_, 
                       __ZN10OpenSubdiv6v3_1_13Vtr8internal14FVarRefinementC2ERKNS2_10RefinementERNS2_9FVarLevelES8_, 
                       __ZN10OpenSubdiv6v3_1_13Vtr8internal14FVarRefinementD1Ev, 
                       __ZN10OpenSubdiv6v3_1_13Vtr8internal14FVarRefinementD2Ev, 
                       __ZN10OpenSubdiv6v3_1_13Vtr8internal14QuadRefinement22markSparseFaceChildrenEv, 
                       __ZN10OpenSubdiv6v3_1_13Vtr8internal14QuadRefinement24populateEdgeFaceRelationEv, 
                       __ZN10OpenSubdiv6v3_1_13Vtr8internal14QuadRefinement24populateFaceEdgeRelationEv, 
                       __ZN10OpenSubdiv6v3_1_13Vtr8internal14QuadRefinement26allocateParentChildIndicesEv, 
                       __ZN10OpenSubdiv6v3_1_13Vtr8internal14QuadRefinement26populateEdgeVertexRelationEv, 
                       __ZN10OpenSubdiv6v3_1_13Vtr8internal14QuadRefinement26populateFaceVertexRelationEv, 
                       __ZN10OpenSubdiv6v3_1_13Vtr8internal14QuadRefinement26populateVertexEdgeRelationEv, 
                       __ZN10OpenSubdiv6v3_1_13Vtr8internal14QuadRefinement26populateVertexFaceRelationEv, 
                       __ZN10OpenSubdiv6v3_1_13Vtr8internal14QuadRefinement32populateEdgeFacesFromParentEdgesEv, 
                       __ZN10OpenSubdiv6v3_1_13Vtr8internal14QuadRefinement32populateEdgeFacesFromParentFacesEv, 
                       __ZN10OpenSubdiv6v3_1_13Vtr8internal14QuadRefinement32populateFaceEdgesFromParentFacesEv, 
                       __ZN10OpenSubdiv6v3_1_13Vtr8internal14QuadRefinement34populateFaceVertexCountsAndOffsetsEv, 
                       __ZN10OpenSubdiv6v3_1_13Vtr8internal14QuadRefinement34populateVertexEdgesFromParentEdgesEv, 
                       __ZN10OpenSubdiv6v3_1_13Vtr8internal14QuadRefinement34populateVertexEdgesFromParentFacesEv, 
                       __ZN10OpenSubdiv6v3_1_13Vtr8internal14QuadRefinement34populateVertexFacesFromParentEdgesEv, 
                       __ZN10OpenSubdiv6v3_1_13Vtr8internal14QuadRefinement34populateVertexFacesFromParentFacesEv, 
                       __ZN10OpenSubdiv6v3_1_13Vtr8internal14QuadRefinement35populateEdgeVerticesFromParentEdgesEv, 
                       __ZN10OpenSubdiv6v3_1_13Vtr8internal14QuadRefinement35populateEdgeVerticesFromParentFacesEv, 
                       __ZN10OpenSubdiv6v3_1_13Vtr8internal14QuadRefinement35populateFaceVerticesFromParentFacesEv, 
                       __ZN10OpenSubdiv6v3_1_13Vtr8internal14QuadRefinement37populateVertexEdgesFromParentVerticesEv, 
                       __ZN10OpenSubdiv6v3_1_13Vtr8internal14QuadRefinement37populateVertexFacesFromParentVerticesEv, 
                       __ZN10OpenSubdiv6v3_1_13Vtr8internal14QuadRefinementC1ERKNS2_5LevelERS4_RKNS0_3Sdc7OptionsE, 
                       __ZN10OpenSubdiv6v3_1_13Vtr8internal14QuadRefinementC2ERKNS2_5LevelERS4_RKNS0_3Sdc7OptionsE, 
                       __ZN10OpenSubdiv6v3_1_13Vtr8internal14QuadRefinementD0Ev, 
                       __ZN10OpenSubdiv6v3_1_13Vtr8internal14QuadRefinementD1Ev, 
                       __ZN10OpenSubdiv6v3_1_13Vtr8internal14QuadRefinementD2Ev, 
                       __ZN10OpenSubdiv6v3_1_13Vtr8internal14SparseSelector10selectEdgeEi, 
                       __ZN10OpenSubdiv6v3_1_13Vtr8internal14SparseSelector10selectFaceEi, 
                       __ZN10OpenSubdiv6v3_1_13Vtr8internal14SparseSelector12selectVertexEi, 
                       __ZN10OpenSubdiv6v3_1_13Vtr8internal5Level17createFVarChannelEiRKNS0_3Sdc7OptionsE, 
                       __ZN10OpenSubdiv6v3_1_13Vtr8internal5Level17getFaceFVarValuesEii, 
                       __ZN10OpenSubdiv6v3_1_13Vtr8internal5Level18destroyFVarChannelEi, 
                       __ZN10OpenSubdiv6v3_1_13Vtr8internal5Level20populateLocalIndicesEv, 
                       __ZN10OpenSubdiv6v3_1_13Vtr8internal5Level22getTopologyErrorStringENS3_13TopologyErrorE, 
                       __ZN10OpenSubdiv6v3_1_13Vtr8internal5Level24orderVertexFacesAndEdgesEi, 
                       __ZN10OpenSubdiv6v3_1_13Vtr8internal5Level24orientIncidentComponentsEv, 
                       __ZN10OpenSubdiv6v3_1_13Vtr8internal5Level27completeFVarChannelTopologyEii, 
                       __ZN10OpenSubdiv6v3_1_13Vtr8internal5Level32completeTopologyFromFaceVerticesEv, 
                       __ZN10OpenSubdiv6v3_1_13Vtr8internal5Level4ETag9BitwiseOrEPKS4_i, 
                       __ZN10OpenSubdiv6v3_1_13Vtr8internal5Level4VTag9BitwiseOrEPKS4_i, 
                       __ZN10OpenSubdiv6v3_1_13Vtr8internal5LevelC1Ev, __ZN10OpenSubdiv6v3_1_13Vtr8internal5LevelC2Ev, 
                       __ZN10OpenSubdiv6v3_1_13Vtr8internal5LevelD1Ev, __ZN10OpenSubdiv6v3_1_13Vtr8internal5LevelD2Ev, 
                       __ZN10OpenSubdiv6v3_1_13Vtr8internal9FVarLevel10setOptionsERKNS0_3Sdc7OptionsE, 
                       __ZN10OpenSubdiv6v3_1_13Vtr8internal9FVarLevel12resizeValuesEi, 
                       __ZN10OpenSubdiv6v3_1_13Vtr8internal9FVarLevel16resizeComponentsEv, 
                       __ZN10OpenSubdiv6v3_1_13Vtr8internal9FVarLevel18resizeVertexValuesEi, 
                       __ZN10OpenSubdiv6v3_1_13Vtr8internal9FVarLevel30completeTopologyFromFaceValuesEi, 
                       __ZN10OpenSubdiv6v3_1_13Vtr8internal9FVarLevel36initializeFaceValuesFromFaceVerticesEv, 
                       __ZN10OpenSubdiv6v3_1_13Vtr8internal9FVarLevel42initializeFaceValuesFromVertexFaceSiblingsEv, 
                       __ZN10OpenSubdiv6v3_1_13Vtr8internal9FVarLevelC1ERKNS2_5LevelE, 
                       __ZN10OpenSubdiv6v3_1_13Vtr8internal9FVarLevelC2ERKNS2_5LevelE, 
                       __ZN10OpenSubdiv6v3_1_13Vtr8internal9FVarLevelD1Ev, __ZN10OpenSubdiv6v3_1_13Vtr8internal9FVarLevelD2Ev, 
                       __ZN10SCNCAction10finishTimeEv, __ZN10SCNCAction11cpp_reverseEv, 
                       __ZN10SCNCAction12ratioForTimeEd, __ZN10SCNCAction12setBaseSpeedEd, 
                       __ZN10SCNCAction18timeJumpWithTargetEP7SCNNoded, __ZN10SCNCAction22cpp_timeJumpWithTargetEP7SCNNoded, 
                       __ZN10SCNCAction22wasAddedToTargetAtTimeEP7SCNNoded, __ZN10SCNCAction23updateWithTargetForTimeEP7SCNNoded, 
                       __ZN10SCNCAction25didFinishWithTargetAtTimeEP7SCNNoded, __ZN10SCNCAction25wasPausedWithTargetAtTimeEP7SCNNoded, 
                       __ZN10SCNCAction25willStartWithTargetAtTimeEP7SCNNoded, __ZN10SCNCAction26cpp_wasAddedToTargetAtTimeEP7SCNNoded, 
                       __ZN10SCNCAction26wasRemovedFromTargetAtTimeEP7SCNNoded, __ZN10SCNCAction26willResumeWithTargetAtTimeEP7SCNNoded, 
                       __ZN10SCNCAction27cpp_updateWithTargetForTimeEP7SCNNoded, 
                       __ZN10SCNCAction29cpp_didFinishWithTargetAtTimeEP7SCNNoded, 
                       __ZN10SCNCAction29cpp_wasPausedWithTargetAtTimeEP7SCNNoded, 
                       __ZN10SCNCAction29cpp_willStartWithTargetAtTimeEP7SCNNoded, 
                       __ZN10SCNCAction30cpp_wasRemovedFromTargetAtTimeEP7SCNNoded, 
                       __ZN10SCNCAction30cpp_willResumeWithTargetAtTimeEP7SCNNoded, 
                       __ZN10SCNCAction35cpp_backwardUpdateWithTargetForTimeEP7SCNNoded, 
                       __ZN10SCNCAction4copyEv, __ZN10SCNCAction7reverseEv, __ZN10SCNCAction8cpp_copyEv, 
                       __ZN10SCNCAction8setSpeedEd, __ZN10SCNCAction9cpp_resetEv, 
                       __ZN10SCNCActionC1EPKS_, __ZN10SCNCActionC1Ev, __ZN10SCNCActionC2EPKS_, 
                       __ZN10SCNCActionC2Ev, __ZN10SCNCActionD0Ev, __ZN10SCNCActionD1Ev, 
                       __ZN10SCNCActionD2Ev, __ZN13WireframeMesh4DrawEP18__C3DEngineContextP14__C3DFXProgramRK12C3DMatrix4x4RK9C3DColor4x, 
                       __ZN13WireframeMesh7PrepareEP9__C3DMesh, __ZN13WireframeMeshC1EP9__C3DMesh, 
                       __ZN13WireframeMeshC2EP9__C3DMesh, __ZN13WireframeMeshD1Ev, 
                       __ZN13WireframeMeshD2Ev, __ZN15ShaderConverter10ParseMacroEv, 
                       __ZN15ShaderConverter10StaticInitEv, __ZN15ShaderConverter11ParseRValueERKNSt3__13setI9TokenTypeNS0_4lessIS2_EENS0_9allocatorIS2_EEEE, 
                       __ZN15ShaderConverter12ParseUniformEv, __ZN15ShaderConverter15ParseMatrixCTOREv, 
                       __ZN15ShaderConverter16ParseDeclarationEv, __ZN15ShaderConverter18ParseTextureLookupEv, 
                       __ZN15ShaderConverter21ParseFunctionArgumentEv, __ZN15ShaderConverter5ErrorEPKcz, 
                       __ZN15ShaderConverter5ParseEb, __ZN15ShaderConverter9NextTokenEv, 
                       __ZN15ShaderConverter9mpStaticsE, __ZN15ShaderConverterC1EP8NSString, 
                       __ZN15ShaderConverterC1ERKNSt3__112basic_stringIcNS0_11char_traitsIcEENS0_9allocatorIcEEEE, 
                       __ZN15ShaderConverterC2EP8NSString, __ZN15ShaderConverterC2ERKNSt3__112basic_stringIcNS0_11char_traitsIcEENS0_9allocatorIcEEEE, 
                       __ZN15ShaderConverterD0Ev, __ZN15ShaderConverterD1Ev, __ZN15ShaderConverterD2Ev, 
                       __ZN15c3dPhysicsFieldC2ERKS_, __ZN15c3dPhysicsFieldC2Ev, __ZN15c3dPhysicsFieldD0Ev, 
                       __ZN15c3dPhysicsFieldD1Ev, __ZN15c3dPhysicsFieldD2Ev, __ZN16CPP3DAudioEngine10GetContextEP18__C3DEngineContext, 
                       __ZN16CPP3DAudioEngine11GetAVEngineEv, __ZN16CPP3DAudioEngine11RemoveVoiceEPKv, 
                       __ZN16CPP3DAudioEngine13RemoveContextEP18__C3DEngineContext, 
                       __ZN16CPP3DAudioEngine15IsEngineCreatedEv, __ZN16CPP3DAudioEngine19GetExistingAVEngineEv, 
                       __ZN16CPP3DAudioEngine4LockEv, __ZN16CPP3DAudioEngine6UnlockEv, 
                       __ZN16CPP3DAudioEngine8AddVoiceEPKv, __ZN16CPP3DAudioEngine9GetEngineEv, 
                       __ZN16CPP3DAudioEngineC1Ev, __ZN16CPP3DAudioEngineC2Ev, __ZN16CPP3DAudioEngineD1Ev, 
                       __ZN16CPP3DAudioEngineD2Ev, __ZN16btC3DMotionState17setWorldTransformERK11btTransform, 
                       __ZN16btC3DMotionStateC1EP9__C3DNodef, __ZN16btC3DMotionStateC2EP9__C3DNodef, 
                       __ZN17CPP3DAudioContext11GetListenerEv, __ZN17CPP3DAudioContext11RemoveVoiceEPKv, 
                       __ZN17CPP3DAudioContext11SetListenerEP9__C3DNode, __ZN17CPP3DAudioContext12UpdateVoicesEv, 
                       __ZN17CPP3DAudioContext13ResetListenerEv, __ZN17CPP3DAudioContext23GetAudioEnvironmentNodeEv, 
                       __ZN17CPP3DAudioContext4InitEv, __ZN17CPP3DAudioContext8AddVoiceEPKv, 
                       __ZN17CPP3DAudioContextC1ER16CPP3DAudioEngineP18__C3DEngineContext, 
                       __ZN17CPP3DAudioContextC2ER16CPP3DAudioEngineP18__C3DEngineContext, 
                       __ZN17CPP3DAudioContextD1Ev, __ZN17CPP3DAudioContextD2Ev, 
                       __ZN17packedVertexIndexC1ERKS_, __ZN17packedVertexIndexC1Ei, 
                       __ZN17packedVertexIndexC1Ev, __ZN17packedVertexIndexC2ERKS_, 
                       __ZN17packedVertexIndexC2Ei, __ZN17packedVertexIndexC2Ev, 
                       __ZN17packedVertexIndexD0Ev, __ZN17packedVertexIndexD1Ev, 
                       __ZN17packedVertexIndexD2Ev, __ZN17packedVertexIndexaSERKS_, 
                       __ZN19c3dPhysicsFieldDragC1Ev, __ZN19c3dPhysicsFieldDragC2Ev, 
                       __ZN20c3dPhysicsFieldNoiseC1Ev, __ZN20c3dPhysicsFieldNoiseC2Ev, 
                       __ZN21WireframeMeshInstance4DrawEP18__C3DEngineContextP14__C3DFXProgramx, 
                       __ZN21WireframeMeshInstanceC1EP13WireframeMesh9C3DColor412C3DMatrix4x4, 
                       __ZN21WireframeMeshInstanceC2EP13WireframeMesh9C3DColor412C3DMatrix4x4, 
                       __ZN21WireframeMeshInstanceD1Ev, __ZN21WireframeMeshInstanceD2Ev, 
                       __ZN21WireframeMeshRenderer11AddInstanceEP9__C3DMesh9C3DColor412C3DMatrix4x4, 
                       __ZN21WireframeMeshRenderer11BumpFrameIDEv, __ZN21WireframeMeshRenderer13DrawInstancesEP18__C3DEngineContextP14__C3DFXProgram, 
                       __ZN21WireframeMeshRenderer16GetWireframeMeshEP9__C3DMesh, 
                       __ZN21WireframeMeshRenderer5PurgeEv, __ZN21WireframeMeshRendererC1Ev, 
                       __ZN21WireframeMeshRendererC2Ev, __ZN21WireframeMeshRendererD1Ev, 
                       __ZN21WireframeMeshRendererD2Ev, __ZN21c3dPhysicsFieldCustomC1Ev, 
                       __ZN21c3dPhysicsFieldCustomC2Ev, __ZN21c3dPhysicsFieldSpringC1Ev, 
                       __ZN21c3dPhysicsFieldSpringC2Ev, __ZN21c3dPhysicsFieldVortex20_transformHasChangedEv, 
                       __ZN21c3dPhysicsFieldVortexC1Ev, __ZN21c3dPhysicsFieldVortexC2Ev, 
                       __ZN23c3dPhysicsFieldElectricC1Ev, __ZN23c3dPhysicsFieldElectricC2Ev, 
                       __ZN23c3dPhysicsFieldMagnetic20_transformHasChangedEv, __ZN23c3dPhysicsFieldMagneticC1Ev, 
                       __ZN23c3dPhysicsFieldMagneticC2Ev, __ZN25c3dPhysicsFieldTurbulenceC1Ev, 
                       __ZN25c3dPhysicsFieldTurbulenceC2Ev, __ZN28c3dPhysicsFieldLinearGravity10setGravityERKDv3_f, 
                       __ZN28c3dPhysicsFieldLinearGravity20_transformHasChangedEv, 
                       __ZN28c3dPhysicsFieldLinearGravityC1Ev, __ZN28c3dPhysicsFieldLinearGravityC2Ev, 
                       __ZN28c3dPhysicsFieldRadialGravityC1Ev, __ZN28c3dPhysicsFieldRadialGravityC2Ev, 
                       __ZN4Mesh10AppendConeERK10SCNVector3S2_ffRK9C3DColor4, __ZN4Mesh10AppendQuadERK10SCNVector3S2_S2_S2_RK9C3DColor4, 
                       __ZN4Mesh13AppendSegmentERK10SCNVector3S2_RK9C3DColor4S5_, 
                       __ZN4Mesh14AppendZUpArrowERK9C3DColor4, __ZN4Mesh15AllocateIndicesEj, 
                       __ZN4Mesh16AllocateVerticesEj, __ZN4Mesh18AppendSphericalCapEffRK9C3DColor4, 
                       __ZN4Mesh18AppendWireframeBoxERK10SCNVector3S0_RK9C3DColor4, 
                       __ZN4Mesh18CreateLineGeometryEv, __ZN4Mesh20CreateCameraGeometryEv, 
                       __ZN4Mesh21AppendWireframeSphereERK10SCNVector3fiRK9C3DColor4, 
                       __ZN4Mesh21AppendWireframeSphereEfiRK9C3DColor4, __ZN4Mesh22AppendWireframePyramidERK10SCNVector3S2_S2_S2_S2_RK9C3DColor4, 
                       __ZN4Mesh22CreateTriangleGeometryEv, __ZN4Mesh24AppendWireframeXCylinderERK10SCNVector3ffRK9C3DColor4, 
                       __ZN4Mesh26CreatePhysicsFieldGeometryEv, __ZN4Mesh27CreateCameraFrustumGeometryEv, 
                       __ZN4Mesh28AppendWireframeCameraFrustumERK9C3DColor4, __ZN4Mesh29CreateCameraNearPlaneGeometryEv, 
                       __ZN4Mesh30AppendWireframeCameraNearPlaneERK9C3DColor4, __ZN4Mesh5ResetEv, 
                       __ZN4Mesh8AddColorERK9C3DColor4, __ZN4Mesh8AddColorEj, __ZN4Mesh8AddIndexEt, 
                       __ZN4Mesh8SetColorEjRK9C3DColor4, __ZN4Mesh8SetColorEjj, __ZN4Mesh8SetIndexEjj, 
                       __ZN4Mesh9AddVertexERK10SCNVector3, __ZN4Mesh9SetVertexEjRK10SCNVector3, 
                       __ZN4Mesh9TagOffsetEv, __ZN8VariableC1ERKNSt3__112basic_stringIcNS0_11char_traitsIcEENS0_9allocatorIcEEEES8_S8_S8_, 
                       __ZN8VariableC2ERKNSt3__112basic_stringIcNS0_11char_traitsIcEENS0_9allocatorIcEEEES8_S8_S8_, 
                       __ZN9Statement12AddStatementEPS_, __ZN9Statement8AddTokenERK5Token, 
                       __ZN9Statement9AddTokensERKNSt3__16vectorI5TokenNS0_9allocatorIS2_EEEE, 
                       __ZN9Tokenizer11ParseNumberEv, __ZN9Tokenizer11ParseStringEv, 
                       __ZN9Tokenizer11ParseSymbolEv, __ZN9Tokenizer12CaptureTokenE9TokenType, 
                       __ZN9Tokenizer16ParseLineCommentEv, __ZN9Tokenizer21ParseMultiLineCommentEv, 
                       __ZN9Tokenizer8NextCharEv, __ZN9Tokenizer9NextTokenEv, __ZN9Tokenizer9SkipBlankEv, 
                       __ZN9TokenizerC1ERKNSt3__112basic_stringIcNS0_11char_traitsIcEENS0_9allocatorIcEEEE, 
                       __ZN9TokenizerC2ERKNSt3__112basic_stringIcNS0_11char_traitsIcEENS0_9allocatorIcEEEE, 
                       __ZN9c3dAether11removeFieldEP15c3dPhysicsField, __ZN9c3dAether21fieldsModeHaveChangedEv, 
                       __ZN9c3dAether8addFieldEP15c3dPhysicsField, __ZN9c3dAetherC1Ev, 
                       __ZN9c3dAetherC2Ev, __ZN9c3dAetherD1Ev, __ZN9c3dAetherD2Ev, 
                       __ZNK10OpenSubdiv6v3_1_13Far15TopologyRefiner21GetNumFVarValuesTotalEi, 
                       __ZNK10OpenSubdiv6v3_1_13Sdc6Crease25DetermineVertexVertexRuleEfi, 
                       __ZNK10OpenSubdiv6v3_1_13Sdc6Crease25DetermineVertexVertexRuleEfiPKf, 
                       __ZNK10OpenSubdiv6v3_1_13Sdc6Crease30SubdivideEdgeSharpnessAtVertexEfiPKf, 
                       __ZNK10OpenSubdiv6v3_1_13Sdc6Crease31ComputeFractionalWeightAtVertexEffiPKfS4_, 
                       __ZNK10OpenSubdiv6v3_1_13Sdc6Crease36SubdivideEdgeSharpnessesAroundVertexEiPKfPf, 
                       __ZNK10OpenSubdiv6v3_1_13Vtr8internal10Refinement25printParentToChildMappingEv, 
                       __ZNK10OpenSubdiv6v3_1_13Vtr8internal14FVarRefinement19getFractionalWeightEitit, 
                       __ZNK10OpenSubdiv6v3_1_13Vtr8internal5Level12getFaceETagsEiPNS3_4ETagEi, 
                       __ZNK10OpenSubdiv6v3_1_13Vtr8internal5Level12getFaceVTagsEiPNS3_4VTagEi, 
                       __ZNK10OpenSubdiv6v3_1_13Vtr8internal5Level14getFVarOptionsEi, 
                       __ZNK10OpenSubdiv6v3_1_13Vtr8internal5Level16getNumFVarValuesEi, 
                       __ZNK10OpenSubdiv6v3_1_13Vtr8internal5Level16validateTopologyEPFvNS3_13TopologyErrorEPKcPKvES8_, 
                       __ZNK10OpenSubdiv6v3_1_13Vtr8internal5Level17getFaceFVarValuesEii, 
                       __ZNK10OpenSubdiv6v3_1_13Vtr8internal5Level19isSingleCreasePatchEiPfPi, 
                       __ZNK10OpenSubdiv6v3_1_13Vtr8internal5Level20getFaceCompositeVTagERNS1_10ConstArrayIiEE, 
                       __ZNK10OpenSubdiv6v3_1_13Vtr8internal5Level20getFaceCompositeVTagEii, 
                       __ZNK10OpenSubdiv6v3_1_13Vtr8internal5Level24orderVertexFacesAndEdgesEiPiS4_, 
                       __ZNK10OpenSubdiv6v3_1_13Vtr8internal5Level25doesEdgeFVarTopologyMatchEii, 
                       __ZNK10OpenSubdiv6v3_1_13Vtr8internal5Level25doesFaceFVarTopologyMatchEii, 
                       __ZNK10OpenSubdiv6v3_1_13Vtr8internal5Level26getVertexCompositeFVarVTagEii, 
                       __ZNK10OpenSubdiv6v3_1_13Vtr8internal5Level27doesVertexFVarTopologyMatchEii, 
                       __ZNK10OpenSubdiv6v3_1_13Vtr8internal5Level27gatherQuadLinearPatchPointsEiPiii, 
                       __ZNK10OpenSubdiv6v3_1_13Vtr8internal5Level33gatherQuadRegularRingAroundVertexEiPii, 
                       __ZNK10OpenSubdiv6v3_1_13Vtr8internal5Level34gatherQuadRegularCornerPatchPointsEiPiii, 
                       __ZNK10OpenSubdiv6v3_1_13Vtr8internal5Level35gatherTriRegularInteriorPatchPointsEiPii, 
                       __ZNK10OpenSubdiv6v3_1_13Vtr8internal5Level36gatherQuadRegularBoundaryPatchPointsEiPiii, 
                       __ZNK10OpenSubdiv6v3_1_13Vtr8internal5Level36gatherQuadRegularInteriorPatchPointsEiPiii, 
                       __ZNK10OpenSubdiv6v3_1_13Vtr8internal5Level37gatherTriRegularCornerEdgePatchPointsEiPii, 
                       __ZNK10OpenSubdiv6v3_1_13Vtr8internal5Level39gatherTriRegularBoundaryEdgePatchPointsEiPii, 
                       __ZNK10OpenSubdiv6v3_1_13Vtr8internal5Level39gatherTriRegularCornerVertexPatchPointsEiPii, 
                       __ZNK10OpenSubdiv6v3_1_13Vtr8internal5Level40gatherQuadRegularPartialRingAroundVertexEiRKNS3_5VSpanEPii, 
                       __ZNK10OpenSubdiv6v3_1_13Vtr8internal5Level41gatherTriRegularBoundaryVertexPatchPointsEiPii, 
                       __ZNK10OpenSubdiv6v3_1_13Vtr8internal5Level5printEPKNS2_10RefinementE, 
                       __ZNK10OpenSubdiv6v3_1_13Vtr8internal5Level8findEdgeEii, __ZNK10OpenSubdiv6v3_1_13Vtr8internal9FVarLevel16gatherValueSpansEiPNS3_9ValueSpanE, 
                       __ZNK10OpenSubdiv6v3_1_13Vtr8internal9FVarLevel16getFaceValueTagsEiPNS3_8ValueTagE, 
                       __ZNK10OpenSubdiv6v3_1_13Vtr8internal9FVarLevel17getEdgeFaceValuesEiiPi, 
                       __ZNK10OpenSubdiv6v3_1_13Vtr8internal9FVarLevel19getVertexEdgeValuesEiPi, 
                       __ZNK10OpenSubdiv6v3_1_13Vtr8internal9FVarLevel24getFaceCompositeValueTagEi, 
                       __ZNK10OpenSubdiv6v3_1_13Vtr8internal9FVarLevel24getVertexCreaseEndValuesEitPi, 
                       __ZNK10OpenSubdiv6v3_1_13Vtr8internal9FVarLevel45buildFaceVertexSiblingsFromVertexFaceSiblingsERNSt3__16vectorItNS4_9allocatorItEEEE, 
                       __ZNK10OpenSubdiv6v3_1_13Vtr8internal9FVarLevel5printEv, __ZNK10OpenSubdiv6v3_1_13Vtr8internal9FVarLevel8validateEv, 
                       __ZNK10SCNCAction16cpp_ratioForTimeEd, __ZNK10SCNCAction32cpp_timeByApplyingTimingfunctionEd, 
                       __ZNK13WireframeMesh14GetLastFrameIDEv, __ZNK15ShaderConverter10OutputCodeE8LanguageRNSt3__112basic_stringIcNS1_11char_traitsIcEENS1_9allocatorIcEEEE, 
                       __ZNK15ShaderConverter17GLSLToMetalSymbolERKNSt3__112basic_stringIcNS0_11char_traitsIcEENS0_9allocatorIcEEEE, 
                       __ZNK15ShaderConverter17MetalToGLSLSymbolERKNSt3__112basic_stringIcNS0_11char_traitsIcEENS0_9allocatorIcEEEE, 
                       __ZNK15ShaderConverter19GetDetectedLanguageEv, __ZNK15ShaderConverter21GetGLSLToMetalSamplerERKNSt3__112basic_stringIcNS0_11char_traitsIcEENS0_9allocatorIcEEEE, 
                       __ZNK15ShaderConverter22OutputBodyDeclarationsE8LanguageRNSt3__112basic_stringIcNS1_11char_traitsIcEENS1_9allocatorIcEEEE, 
                       __ZNK15ShaderConverter25GetNeededStandardUniformsEv, __ZNK15ShaderConverter6IsTypeERK5Token, 
                       __ZNK15ShaderConverter6IsTypeERKNSt3__112basic_stringIcNS0_11char_traitsIcEENS0_9allocatorIcEEEE, 
                       __ZNK15c3dPhysicsField8containsERKDv3_f, __ZNK16btC3DMotionState17getWorldTransformER11btTransform, 
                       __ZNK17CPP3DAudioContext11GetAVEngineEv, __ZNK19c3dPhysicsFieldDrag14evalForceBatchE20c3dPhysicsFieldBatchjj, 
                       __ZNK19c3dPhysicsFieldDrag9evalForceEDv3_fS0_fff, __ZNK20c3dPhysicsFieldNoise14evalForceBatchE20c3dPhysicsFieldBatchjj, 
                       __ZNK20c3dPhysicsFieldNoise9evalForceEDv3_fS0_fff, __ZNK21c3dPhysicsFieldCustom14evalForceBatchE20c3dPhysicsFieldBatchjj, 
                       __ZNK21c3dPhysicsFieldCustom9evalForceEDv3_fS0_fff, __ZNK21c3dPhysicsFieldSpring14evalForceBatchE20c3dPhysicsFieldBatchjj, 
                       __ZNK21c3dPhysicsFieldSpring9evalForceEDv3_fS0_fff, __ZNK21c3dPhysicsFieldVortex14evalForceBatchE20c3dPhysicsFieldBatchjj, 
                       __ZNK21c3dPhysicsFieldVortex9evalForceEDv3_fS0_fff, __ZNK23c3dPhysicsFieldElectric14evalForceBatchE20c3dPhysicsFieldBatchjj, 
                       __ZNK23c3dPhysicsFieldElectric9evalForceEDv3_fS0_fff, __ZNK23c3dPhysicsFieldMagnetic14evalForceBatchE20c3dPhysicsFieldBatchjj, 
                       __ZNK23c3dPhysicsFieldMagnetic9evalForceEDv3_fS0_fff, __ZNK25c3dPhysicsFieldTurbulence14evalForceBatchE20c3dPhysicsFieldBatchjj, 
                       __ZNK25c3dPhysicsFieldTurbulence9evalForceEDv3_fS0_fff, __ZNK28c3dPhysicsFieldLinearGravity14evalForceBatchE20c3dPhysicsFieldBatchjj, 
                       __ZNK28c3dPhysicsFieldLinearGravity9evalForceEDv3_fS0_fff, 
                       __ZNK28c3dPhysicsFieldRadialGravity14evalForceBatchE20c3dPhysicsFieldBatchjj, 
                       __ZNK28c3dPhysicsFieldRadialGravity9evalForceEDv3_fS0_fff, 
                       __ZNK5Token11GetTypeNameEv, __ZNK5Token5c_strEv, __ZNK8Variable6OutputERK15ShaderConverter8LanguageRNSt3__112basic_stringIcNS4_11char_traitsIcEENS4_9allocatorIcEEEE, 
                       __ZNK9Tokenizer11GetNextCharEv, __ZNK9Tokenizer6IsDoneEv, 
                       __ZNK9Tokenizer7GetLineEv, __ZNK9Tokenizer8GetTokenEv, __ZNK9Tokenizer9GetColumnEv, 
                       __ZNK9Tokenizer9IsStarvedEv, __ZNK9Tokenizer9LookAheadEv, 
                       __ZNK9c3dAether15evalForcesBatchE20c3dPhysicsFieldBatchjj, 
                       __ZNK9c3dAether9evalForceEmDv3_fS0_fff, __ZTV10SCNCAction, 
                       __ZTV15ShaderConverter, __ZTV15c3dPhysicsField, __ZTV16btC3DMotionState, 
                       __ZTV17packedVertexIndex, __ZTV19c3dPhysicsFieldDrag, __ZTV20c3dPhysicsFieldNoise, 
                       __ZTV21c3dPhysicsFieldCustom, __ZTV21c3dPhysicsFieldSpring, 
                       __ZTV21c3dPhysicsFieldVortex, __ZTV23c3dPhysicsFieldElectric, 
                       __ZTV23c3dPhysicsFieldMagnetic, __ZTV25c3dPhysicsFieldTurbulence, 
                       __ZTV28c3dPhysicsFieldLinearGravity, __ZTV28c3dPhysicsFieldRadialGravity, 
                       __ZTVN10OpenSubdiv6v3_1_13Vtr8internal10RefinementE, __ZTVN10OpenSubdiv6v3_1_13Vtr8internal13TriRefinementE, 
                       __ZTVN10OpenSubdiv6v3_1_13Vtr8internal14QuadRefinementE ]
    objc-ivars:      [ _C3DAnimationBinding._destination, _C3DAnimationBinding._owner, 
                       _C3DAnimationBinding._source, _SCNActionRunBlock._block, _SCNActionRunBlock._queue, 
                       _SCNIKJoint.joint, _SCNIKJoint.maxAllowedRotationAngle, _SCNKeyedUnarchiver._assetCatalog, 
                       _SCNKeyedUnarchiver._context, _SCNKeyedUnarchiver._documentURL, 
                       _SCNOrderedDictionary._keyValues, _SCNOrderedDictionary._keys, 
                       _SCNRenderContextImp.__engineStats, _SCNRenderContextImp._currentFrameIndex, 
                       _SCNRenderContextImp._needSuperSampling, _SCNRenderContextImp._renderTargetRegistry, 
                       _SCNRenderContextImp._rendererPremultipliedBackgroundColor, 
                       _SCNRenderContextImp._screenTransform, _SCNRenderContextImp._superSamplingFactor, 
                       _SCNRendererTransitionContext._outgoingPointOfView, _SCNRendererTransitionContext._outgoingScene, 
                       _SCNRendererTransitionContext._renderers, _SCNRendererTransitionContext._transition, 
                       _SCNRendererTransitionContext._transitionPass, _SCNRendererTransitionContext._transitionStartTime, 
                       _SCNRendererTransitionContext.completionHandler, _SCNSpriteKitEventHandler._scene, 
                       _SCNSpriteKitEventHandler._touchMap, _SCN_CAKeyframeAnimation._c3dAnimation, 
                       _SCN_CAKeyframeAnimation._caReady, __SCNUIKitSourceRegistry._sources ]
  - archs:           [ i386, x86_64 ]
    symbols:         [ _C3DASTCIsSupported, _C3DAddBaseType, _C3DAddSceneRef, _C3DAdjustZRangeOfProjectionInfos, 
                       _C3DAllocatorCreate, _C3DAllocatorDelete, _C3DAllocatorFree, 
                       _C3DAllocatorGetAllocationCount, _C3DAllocatorGetTypeID, _C3DAllocatorNew, 
                       _C3DAllocatorSetKeepLastPageAllocated, _C3DAnimatableParamControllerCreate, 
                       _C3DAnimatableParamControllerGetObject, _C3DAnimatableParamControllerGetParamDescription, 
                       _C3DAnimatableParamControllerGetTypeID, _C3DAnimationClusterCopy, 
                       _C3DAnimationClusterCopyKeyPaths, _C3DAnimationClusterCreate, 
                       _C3DAnimationClusterCreateWithAnimationGroup, _C3DAnimationClusterGetTypeID, 
                       _C3DAnimationClusterKeyframesCreate, _C3DAnimationClusterKeyframesGetTypeID, 
                       _C3DAnimationClusterNodeCreateWithAnimation, _C3DAnimationClusterNodeGetTypeID, 
                       _C3DAnimationCommonInit, _C3DAnimationCopySettingsToAnimation, 
                       _C3DAnimationCopyTarget, _C3DAnimationCreate, _C3DAnimationCreateCopy, 
                       _C3DAnimationCreateWithPropertyList, _C3DAnimationEvaluate, 
                       _C3DAnimationEventsAddEvent, _C3DAnimationEventsCreateWithEventCount, 
                       _C3DAnimationEventsGetCount, _C3DAnimationEventsGetEventBlockAtIndex, 
                       _C3DAnimationEventsGetEventTimeAtIndex, _C3DAnimationEventsGetTypeID, 
                       _C3DAnimationEventsTriggerEventsWithTimeChanges, _C3DAnimationGetAdditive, 
                       _C3DAnimationGetAnimationCallbacks, _C3DAnimationGetAnimationEvents, 
                       _C3DAnimationGetAutoreverses, _C3DAnimationGetBeginTime, _C3DAnimationGetCommitWhenDone, 
                       _C3DAnimationGetCumulative, _C3DAnimationGetDelegate, _C3DAnimationGetDuration, 
                       _C3DAnimationGetFadeInDuration, _C3DAnimationGetFadeOutDuration, 
                       _C3DAnimationGetFillModeMask, _C3DAnimationGetIsImplicit, 
                       _C3DAnimationGetIsSceneTimeBased, _C3DAnimationGetKeyPath, 
                       _C3DAnimationGetName, _C3DAnimationGetRemoveOnCompletion, 
                       _C3DAnimationGetRepeatCount, _C3DAnimationGetSpeed, _C3DAnimationGetTimeOffset, 
                       _C3DAnimationGetTimingFunction, _C3DAnimationGetTotalDuration, 
                       _C3DAnimationGetTypeID, _C3DAnimationGetWeight, _C3DAnimationGroupAddAnimation, 
                       _C3DAnimationGroupAddAnimationAndUpdateDuration, _C3DAnimationGroupAddAnimations, 
                       _C3DAnimationGroupCopy, _C3DAnimationGroupCreate, _C3DAnimationGroupCreateWithAnimationCluster, 
                       _C3DAnimationGroupGetAnimationAtIndex, _C3DAnimationGroupGetAnimationCount, 
                       _C3DAnimationGroupGetAnimations, _C3DAnimationGroupGetIndexOfAnimation, 
                       _C3DAnimationGroupGetTypeID, _C3DAnimationGroupInsertAnimationAtIndex, 
                       _C3DAnimationGroupIsAnimationClip, _C3DAnimationGroupRemoveAllAnimations, 
                       _C3DAnimationGroupRemoveAnimation, _C3DAnimationGroupRemoveAnimationAtIndex, 
                       _C3DAnimationGroupSetIsAnimationClip, _C3DAnimationIsGroup, 
                       _C3DAnimationManagerActionTimeJump, _C3DAnimationManagerAddAction, 
                       _C3DAnimationManagerAddAnimationForKey, _C3DAnimationManagerAddAnimationPlayerForKey, 
                       _C3DAnimationManagerAddAnimationToSceneForKey, _C3DAnimationManagerAddBinding, 
                       _C3DAnimationManagerApplyActions, _C3DAnimationManagerApplyAnimations, 
                       _C3DAnimationManagerApplyAnimationsForTarget, _C3DAnimationManagerApplyBindings, 
                       _C3DAnimationManagerChangeSpeedOfAnimationForKey, _C3DAnimationManagerCleanupActionContainerForObject, 
                       _C3DAnimationManagerContainsSceneTimeBasedAnimation, _C3DAnimationManagerCreate, 
                       _C3DAnimationManagerExecRemoveAnimation, _C3DAnimationManagerFadeAndRemoveAnimationForKey, 
                       _C3DAnimationManagerGetAnimationForKey, _C3DAnimationManagerGetAnimationForKeyIsPaused, 
                       _C3DAnimationManagerGetAnimationNodeForKey, _C3DAnimationManagerGetModelValueStorage, 
                       _C3DAnimationManagerGetPaused, _C3DAnimationManagerGetSceneTime, 
                       _C3DAnimationManagerGetSceneTimeRange, _C3DAnimationManagerGetSystemTime, 
                       _C3DAnimationManagerGetTypeID, _C3DAnimationManagerIsEmpty, 
                       _C3DAnimationManagerNeedsRedraw, _C3DAnimationManagerPauseAnimationForKey, 
                       _C3DAnimationManagerPauseAnimationNode, _C3DAnimationManagerPlayAnimationNode, 
                       _C3DAnimationManagerPushEvent, _C3DAnimationManagerRemoveActionWithKey, 
                       _C3DAnimationManagerRemoveActionsForObject, _C3DAnimationManagerRemoveActionsForObjectIfNonCustom, 
                       _C3DAnimationManagerRemoveAllBindings, _C3DAnimationManagerRemoveAnimationForKey, 
                       _C3DAnimationManagerRemoveAnimationsForObject, _C3DAnimationManagerRemoveBinding, 
                       _C3DAnimationManagerResolveAnimationPaths, _C3DAnimationManagerSetModelValueStorage, 
                       _C3DAnimationManagerSetPaused, _C3DAnimationManagerSetPausedForEditing, 
                       _C3DAnimationManagerSetSystemTime, _C3DAnimationManagerStopAnimationNode, 
                       _C3DAnimationManagerTimeJump, _C3DAnimationManagerTriggerCallbacks, 
                       _C3DAnimationNeedsCurrentValue, _C3DAnimationNodeAddChild, 
                       _C3DAnimationNodeChangeSpeed, _C3DAnimationNodeCreateWithAnimation, 
                       _C3DAnimationNodeCreateWithAnimationAndAddToAnimationManager, 
                       _C3DAnimationNodeCreateWithAnimationCluster, _C3DAnimationNodeCreateWithAnimationGroupAndAddToAnimationManager, 
                       _C3DAnimationNodeGetAnimation, _C3DAnimationNodeGetAnimationManager, 
                       _C3DAnimationNodeGetChildAtIndex, _C3DAnimationNodeGetChildCount, 
                       _C3DAnimationNodeGetCompletionCallback, _C3DAnimationNodeGetCompletionItem, 
                       _C3DAnimationNodeGetContentTimeForTime, _C3DAnimationNodeGetOwner, 
                       _C3DAnimationNodeGetParent, _C3DAnimationNodeGetPauseTime, 
                       _C3DAnimationNodeGetPaused, _C3DAnimationNodeGetPausedByScene, 
                       _C3DAnimationNodeGetPausedOrPausedByScene, _C3DAnimationNodeGetPlayer, 
                       _C3DAnimationNodeGetRemovedOnCompletion, _C3DAnimationNodeGetStartTime, 
                       _C3DAnimationNodeGetTypeID, _C3DAnimationNodeGetWeightAtTime, 
                       _C3DAnimationNodeRestart, _C3DAnimationNodeSetAnimation, _C3DAnimationNodeSetAnimationManager, 
                       _C3DAnimationNodeSetCompletionItem, _C3DAnimationNodeSetKey, 
                       _C3DAnimationNodeSetOwner, _C3DAnimationNodeSetPauseTime, 
                       _C3DAnimationNodeSetPaused, _C3DAnimationNodeSetPausedByScene, 
                       _C3DAnimationNodeSetPlayer, _C3DAnimationNodeSetRepeatStep, 
                       _C3DAnimationNodeSetStartTime, _C3DAnimationNodeSetTarget, 
                       _C3DAnimationNodeTimeJump, _C3DAnimationPlayerAddAnimationNode, 
                       _C3DAnimationPlayerCreateWithAnimation, _C3DAnimationPlayerGetAnimation, 
                       _C3DAnimationPlayerGetPaused, _C3DAnimationPlayerGetSpeed, 
                       _C3DAnimationPlayerGetTypeID, _C3DAnimationPlayerGetWeight, 
                       _C3DAnimationPlayerPlay, _C3DAnimationPlayerRemoveAnimationNode, 
                       _C3DAnimationPlayerSetAnimation, _C3DAnimationPlayerSetPaused, 
                       _C3DAnimationPlayerSetSpeed, _C3DAnimationPlayerSetWeight, 
                       _C3DAnimationPlayerStop, _C3DAnimationPlayerStopWithDuration, 
                       _C3DAnimationSetAdditive, _C3DAnimationSetAnimationEvents, 
                       _C3DAnimationSetAutoreverses, _C3DAnimationSetBeginTime, _C3DAnimationSetCommitWhenDone, 
                       _C3DAnimationSetCumulative, _C3DAnimationSetDelegate, _C3DAnimationSetDuration, 
                       _C3DAnimationSetFadeInDuration, _C3DAnimationSetFadeOutDuration, 
                       _C3DAnimationSetFillModeMask, _C3DAnimationSetIsImplicit, 
                       _C3DAnimationSetIsSceneTimeBased, _C3DAnimationSetKeyPath, 
                       _C3DAnimationSetName, _C3DAnimationSetRemoveOnCompletion, 
                       _C3DAnimationSetRepeatCount, _C3DAnimationSetSpeed, _C3DAnimationSetTimeOffset, 
                       _C3DAnimationSetTimingFunction, _C3DAnimationSetWeight, _C3DAnimationSetup, 
                       _C3DAnimationStackAppendAnimationNode, _C3DAnimationStackCleanup, 
                       _C3DAnimationStackDiscardModelValueItemForAnimationClusterNode, 
                       _C3DAnimationStackGetSceneTimeRange, _C3DAnimationStackGetTarget, 
                       _C3DAnimationStackInit, _C3DAnimationStackIsEmpty, _C3DAnimationStackMoveAnimationNodeLast, 
                       _C3DAnimationStackRemoveAnimationNode, _C3DAnimationStackSetConstant, 
                       _C3DAnimationStackSetTarget, _C3DAnimationToCAAnimation, _C3DAppendCubicBezierCurveToPath, 
                       _C3DAppendMacros, _C3DAppendPointToPath, _C3DAppendQuadBezierCurveToPath, 
                       _C3DAppendSegmentToPath, _C3DAppleEngineSetJitteredProjectionMatrix, 
                       _C3DApplyScaleFactorOnCamera, _C3DApplyScaleFactorOnGeometry, 
                       _C3DApplyScaleFactorOnLight, _C3DApplyScaleFactorOnMesh, _C3DApplyScaleFactorOnNode, 
                       _C3DApplyScaleFactorOnScene, _C3DArrayAppendValue, _C3DArrayApply, 
                       _C3DArrayApplyAsync, _C3DArrayApplyInRange, _C3DArrayCreate, 
                       _C3DArrayCreateWithKeysOfDictionary, _C3DArrayGetCapacity, 
                       _C3DArrayGetCount, _C3DArrayGetTypeID, _C3DArrayGetValuePtrAtIndex, 
                       _C3DArrayGetValuesPtr, _C3DArrayInsertValueAtIndex, _C3DArrayRecreate, 
                       _C3DArrayRemoveAllValues, _C3DArrayRemoveValueAtIndex, _C3DArraySetCapacity, 
                       _C3DArraySetCount, _C3DAudioManagerAddVoice, _C3DAudioManagerGetAudioEngine, 
                       _C3DAudioManagerGetAudioEnvironmentNode, _C3DAudioManagerGetListener, 
                       _C3DAudioManagerRemoveEngineContext, _C3DAudioManagerRemoveVoice, 
                       _C3DAudioManagerResetListener, _C3DAudioManagerSetListener, 
                       _C3DAudioManagerUpdateEngineContext, _C3DAudioManagerUpdateNodes, 
                       _C3DAudioPlayerPlay, _C3DAudioPlayerSetTransform, _C3DAuthoringEnvironment2Create, 
                       _C3DAuthoringEnvironment2NodeAddedToScene, _C3DAuthoringEnvironment2NodeRemovedFromScene, 
                       _C3DAuthoringEnvironment2Update, _C3DAuthoringEnvironmentAppendDebugBoundingBox, 
                       _C3DAuthoringEnvironmentAppendDebugBoundingSphere, _C3DAuthoringEnvironmentAppendDebugCone, 
                       _C3DAuthoringEnvironmentAppendDebugFrustum, _C3DAuthoringEnvironmentAppendDebugNode, 
                       _C3DAuthoringEnvironmentAppendDebugNodeAttributes, _C3DAuthoringEnvironmentAppendDebugNodeGeometryCreases, 
                       _C3DAuthoringEnvironmentAppendDebugPolyhedron, _C3DAuthoringEnvironmentAppendDebugPyramid, 
                       _C3DAuthoringEnvironmentAppendDebugRay, _C3DAuthoringEnvironmentAppendDebugRect2D, 
                       _C3DAuthoringEnvironmentAppendDebugSegment, _C3DAuthoringEnvironmentAppendDebugSegment2, 
                       _C3DAuthoringEnvironmentAppendDebugString, _C3DAuthoringEnvironmentAppendWireframeMesh, 
                       _C3DAuthoringEnvironmentBeginFrame, _C3DAuthoringEnvironmentColorBlue, 
                       _C3DAuthoringEnvironmentColorCyan, _C3DAuthoringEnvironmentColorForSharpness, 
                       _C3DAuthoringEnvironmentColorGrayDark, _C3DAuthoringEnvironmentColorGrayLight, 
                       _C3DAuthoringEnvironmentColorGrayMedium, _C3DAuthoringEnvironmentColorGreen, 
                       _C3DAuthoringEnvironmentColorOrange, _C3DAuthoringEnvironmentColorPaleBlue, 
                       _C3DAuthoringEnvironmentColorPaleGreen, _C3DAuthoringEnvironmentColorPink, 
                       _C3DAuthoringEnvironmentColorRed, _C3DAuthoringEnvironmentColorWhite, 
                       _C3DAuthoringEnvironmentColorYellow, _C3DAuthoringEnvironmentCopySettings, 
                       _C3DAuthoringEnvironmentCreate, _C3DAuthoringEnvironmentDrawGrid, 
                       _C3DAuthoringEnvironmentDrawManipulatorXYQuadrant, _C3DAuthoringEnvironmentDrawManipulatorXYQuadrantRing, 
                       _C3DAuthoringEnvironmentDrawManipulatorZUpArrow, _C3DAuthoringEnvironmentDrawManipulators, 
                       _C3DAuthoringEnvironmentDrawPending, _C3DAuthoringEnvironmentDrawStats, 
                       _C3DAuthoringEnvironmentDrawWireframes, _C3DAuthoringEnvironmentDrawZbufferDependant, 
                       _C3DAuthoringEnvironmentDrawZbufferIndependant, _C3DAuthoringEnvironmentEndFrame, 
                       _C3DAuthoringEnvironmentGetEngineContext, _C3DAuthoringEnvironmentGetNodeFacingAxis, 
                       _C3DAuthoringEnvironmentGetRendererContext, _C3DAuthoringEnvironmentGetSelectedNodes, 
                       _C3DAuthoringEnvironmentHitTest, _C3DAuthoringEnvironmentHitTestXYQuadrant, 
                       _C3DAuthoringEnvironmentHitTestXYQuadrantRing, _C3DAuthoringEnvironmentHitTestZUpArrow, 
                       _C3DAuthoringEnvironmentNeedsAuthoringPass, _C3DAuthoringEnvironmentSceneDidChange, 
                       _C3DAuthoringEnvironmentShouldDisplayConstraints, _C3DAuthoringEnvironmentShouldDisplayLightInfluences, 
                       _C3DAuthoringEnvironmentUpdateLightingStats, _C3DAuthoringEnvironmentUpdateStats, 
                       _C3DAvoidOccluderConstraintDelegateCreate, _C3DAvoidOccluderConstraintDelegateDidAvoidOccluder, 
                       _C3DAvoidOccluderConstraintDelegateGetTypeID, _C3DAvoidOccluderConstraintDelegateShouldAvoidOccluder, 
                       _C3DBaseTypeArraySizeFromString, _C3DBaseTypeDescription, 
                       _C3DBaseTypeForCFNumberType, _C3DBaseTypeFromDescription, 
                       _C3DBaseTypeFromMetalString, _C3DBaseTypeFromString, _C3DBaseTypeGetBytesPerComponent, 
                       _C3DBaseTypeGetComponentCount, _C3DBaseTypeGetComponentType, 
                       _C3DBaseTypeGetCompoundType, _C3DBaseTypeIsFloatingValue, 
                       _C3DBaseTypeRequires32to64Conversion, _C3DBaseTypeStringDescription, 
                       _C3DBitmapFixIncorrectPremultiply, _C3DBitmapGetData, _C3DBlendFactorToString, 
                       _C3DBlendOpToString, _C3DBlendStatesAllBlack, _C3DBlendStatesCreate, 
                       _C3DBlendStatesDefault, _C3DBlendStatesDefaultAdditive, _C3DBlendStatesDefaultConstantAlpha, 
                       _C3DBlendStatesDefaultConstantColor, _C3DBlendStatesDefaultMax, 
                       _C3DBlendStatesDefaultMultiplicative, _C3DBlendStatesDefaultOver, 
                       _C3DBlendStatesDefaultReplace, _C3DBlendStatesDefaultScreen, 
                       _C3DBlendStatesDefaultSubtract, _C3DBlendStatesDescGetDefault, 
                       _C3DBlendStatesGetDesc, _C3DBlendStatesGetRenderTargetCount, 
                       _C3DBlendStatesGetTypeID, _C3DBlendStatesIsOpaque, _C3DBlendStatesNeedsConstantColor, 
                       _C3DBoundaryDestroy, _C3DBoundingBoxContainsPoint, _C3DBoundingBoxContainsSegment3, 
                       _C3DBoxGeneratePointsCallBack, _C3DBoxGetBoundingBox, _C3DBoxGetBoundingBoxForBoxParameters, 
                       _C3DBoxGetBoundingSphere, _C3DBoxGetBoundingSphereForBoxParameters, 
                       _C3DBufferObjectCreate, _C3DBufferObjectGetBufferID, _C3DBufferObjectGetSize, 
                       _C3DBufferObjectGetTarget, _C3DBufferObjectGetTypeID, _C3DCFTypeCopyModelInfoAtPath, 
                       _C3DCFTypeCopyModelInfoAtSplittedPath, _C3DCFTypeGetAddressForKey, 
                       _C3DCGColorSpaceHasWideGamut, _C3DCIFilterEffectColorRenderTargetNameForNode, 
                       _C3DCIFilterFirstPassNameForNode, _C3DCIFilterNameSpaceWithNode, 
                       _C3DCIFilterNodeTreeColorRenderTargetNameForNode, _C3DCameraCreate, 
                       _C3DCameraCreateCopy, _C3DCameraGetAperture, _C3DCameraGetAspectRatio, 
                       _C3DCameraGetAutomaticallyAdjustsZRange, _C3DCameraGetAverageGray, 
                       _C3DCameraGetBladeCount, _C3DCameraGetBloomBlurRadius, _C3DCameraGetBloomIntensity, 
                       _C3DCameraGetBloomThreshold, _C3DCameraGetCategoryBitMask, 
                       _C3DCameraGetColorFringeIntensity, _C3DCameraGetColorFringeStrength, 
                       _C3DCameraGetColorGradingEffectSlot, _C3DCameraGetContrast, 
                       _C3DCameraGetDepthOfFieldIntensity, _C3DCameraGetDofSampleCount, 
                       _C3DCameraGetEffectiveFovForAspectRatio, _C3DCameraGetExposureAdaptationBrighteningSpeedFactor, 
                       _C3DCameraGetExposureAdaptationDarkeningSpeedFactor, _C3DCameraGetExposureAdaptationDuration, 
                       _C3DCameraGetExposureAdaptationHistogramRangeHighProbability, 
                       _C3DCameraGetExposureAdaptationHistogramRangeLowProbability, 
                       _C3DCameraGetExposureAdaptationMode, _C3DCameraGetExposureOffset, 
                       _C3DCameraGetFStop, _C3DCameraGetFocalLength, _C3DCameraGetFocusDistance, 
                       _C3DCameraGetFov, _C3DCameraGetFovIsHorizontal, _C3DCameraGetFrontDirection, 
                       _C3DCameraGetLetterboxMode, _C3DCameraGetMaximumExposure, 
                       _C3DCameraGetMinimumExposure, _C3DCameraGetMotionBlurIntensity, 
                       _C3DCameraGetOrthographicScale, _C3DCameraGetProjectionInfosPtr, 
                       _C3DCameraGetProjectionTransform, _C3DCameraGetSaturation, 
                       _C3DCameraGetScreenSpaceAmbientOcclusionBias, _C3DCameraGetScreenSpaceAmbientOcclusionDepthThreshold, 
                       _C3DCameraGetScreenSpaceAmbientOcclusionDownSample, _C3DCameraGetScreenSpaceAmbientOcclusionIntensity, 
                       _C3DCameraGetScreenSpaceAmbientOcclusionNormalThreshold, _C3DCameraGetScreenSpaceAmbientOcclusionRadius, 
                       _C3DCameraGetScreenSpaceAmbientOcclusionSampleCount, _C3DCameraGetSensorSize, 
                       _C3DCameraGetTechnique, _C3DCameraGetTypeID, _C3DCameraGetUpDirection, 
                       _C3DCameraGetUsesOrthographicProjection, _C3DCameraGetVignettingIntensity, 
                       _C3DCameraGetVignettingPower, _C3DCameraGetWantsExposureAdaptation, 
                       _C3DCameraGetWantsHDR, _C3DCameraGetWhitePoint, _C3DCameraGetXFov, 
                       _C3DCameraGetYFov, _C3DCameraGetZFar, _C3DCameraGetZNear, 
                       _C3DCameraHasDepthOfField, _C3DCameraNeedsPostProcess, _C3DCameraSetAperture, 
                       _C3DCameraSetAspectRatio, _C3DCameraSetAutomaticallyAdjustsZRange, 
                       _C3DCameraSetAverageGray, _C3DCameraSetBladeCount, _C3DCameraSetBloomBlurRadius, 
                       _C3DCameraSetBloomIntensity, _C3DCameraSetBloomThreshold, 
                       _C3DCameraSetCategoryBitMask, _C3DCameraSetColorFringeIntensity, 
                       _C3DCameraSetColorFringeStrength, _C3DCameraSetContrast, _C3DCameraSetDepthOfFieldIntensity, 
                       _C3DCameraSetDofSampleCount, _C3DCameraSetExposureAdaptationBrighteningSpeedFactor, 
                       _C3DCameraSetExposureAdaptationDarkeningSpeedFactor, _C3DCameraSetExposureAdaptationDuration, 
                       _C3DCameraSetExposureAdaptationHistogramRangeHighProbability, 
                       _C3DCameraSetExposureAdaptationHistogramRangeLowProbability, 
                       _C3DCameraSetExposureAdaptationMode, _C3DCameraSetExposureOffset, 
                       _C3DCameraSetFStop, _C3DCameraSetFocalLength, _C3DCameraSetFocusDistance, 
                       _C3DCameraSetFov, _C3DCameraSetFovHorizontal, _C3DCameraSetLetterboxMode, 
                       _C3DCameraSetMaximumExposure, _C3DCameraSetMinimumExposure, 
                       _C3DCameraSetMotionBlurIntensity, _C3DCameraSetOrthographicScale, 
                       _C3DCameraSetProjectionTransform, _C3DCameraSetSaturation, 
                       _C3DCameraSetScreenSpaceAmbientOcclusionBias, _C3DCameraSetScreenSpaceAmbientOcclusionDepthThreshold, 
                       _C3DCameraSetScreenSpaceAmbientOcclusionDownSample, _C3DCameraSetScreenSpaceAmbientOcclusionIntensity, 
                       _C3DCameraSetScreenSpaceAmbientOcclusionNormalThreshold, _C3DCameraSetScreenSpaceAmbientOcclusionRadius, 
                       _C3DCameraSetScreenSpaceAmbientOcclusionSampleCount, _C3DCameraSetSensorSize, 
                       _C3DCameraSetTechnique, _C3DCameraSetUsesOrthographicProjection, 
                       _C3DCameraSetVignettingIntensity, _C3DCameraSetVignettingPower, 
                       _C3DCameraSetWantsExposureAdaptation, _C3DCameraSetWantsHDR, 
                       _C3DCameraSetWhitePoint, _C3DCameraSetXFov, _C3DCameraSetYFov, 
                       _C3DCameraSetZFar, _C3DCameraSetZNear, _C3DCameraUsesLegacyFov, 
                       _C3DCapsuleCreateMesh, _C3DCapsuleGeneratePointsCallBack, 
                       _C3DCapsuleGetBoundingBox, _C3DCapsuleGetBoundingBoxForCapsuleParameters, 
                       _C3DCapsuleGetBoundingSphere, _C3DCapsuleGetBoundingSphereForCapsuleParameters, 
                       _C3DCheckFramebufferStatus, _C3DCircumcircleContainsPoint, 
                       _C3DCircumcircleContainsPoint_BROKEN, _C3DColor4Add, _C3DColor4Alpha, 
                       _C3DColor4Blue, _C3DColor4ConvertToLinear, _C3DColor4ConvertToNonLinear, 
                       _C3DColor4CopyPropertyList, _C3DColor4Distance, _C3DColor4FromRGBCFColor, 
                       _C3DColor4Green, _C3DColor4HSB2RGB, _C3DColor4InitWithPropertyList, 
                       _C3DColor4IsBlack, _C3DColor4IsEqualToColor4, _C3DColor4IsEqualToColor4WithThreshold, 
                       _C3DColor4IsWhite, _C3DColor4Lerp, _C3DColor4Make, _C3DColor4Mult, 
                       _C3DColor4MultFloat, _C3DColor4Neg, _C3DColor4RGB2HSB, _C3DColor4Red, 
                       _C3DColor4Sub, _C3DColor4ToRGBCFColor, _C3DColor4WithCGColor, 
                       _C3DColorSpaceExtendedLinearSRGB, _C3DColorSpaceExtendedSRGB, 
                       _C3DColorSpaceGray, _C3DColorSpaceLinearGray, _C3DColorSpaceLinearSRGB, 
                       _C3DColorSpaceSRGB, _C3DCommandQueueAppendNewCommand, _C3DCommandQueueCreate, 
                       _C3DCommandQueueGetSharedInstance, _C3DCommandQueueGetTypeID, 
                       _C3DCommonProfileShaderAssignAttributesAndUniformsIndexes, 
                       _C3DComputeFrustumPlanesFromNode, _C3DComputeGaussianBlurFactors, 
                       _C3DComputeGaussianProbability, _C3DComputeLinesIntersection, 
                       _C3DComputeLinesIntersectionForPoints, _C3DComputeMirrorMatrix, 
                       _C3DComputeMirrorPlane, _C3DConcatBaseType, _C3DConeCreateMesh, 
                       _C3DConeGeneratePointsCallBack, _C3DConeGetBoundingBox, _C3DConeGetBoundingBoxForConeParameters, 
                       _C3DConeGetBoundingSphere, _C3DConeGetBoundingSphereForConeParameters, 
                       _C3DConstaintSliderSetCategoryBitMask, _C3DConstaintSliderSetOffset, 
                       _C3DConstaintSliderSetRadius, _C3DConstraintAccelerationCopyTargetPath, 
                       _C3DConstraintAccelerationGetTypeID, _C3DConstraintAccelerationInit, 
                       _C3DConstraintAccelerationSetDamping, _C3DConstraintAccelerationSetDecelerationDistance, 
                       _C3DConstraintAccelerationSetMaximumPositionAcceleration, 
                       _C3DConstraintAccelerationSetMaximumPositionVelocity, _C3DConstraintApply, 
                       _C3DConstraintApplyAcceleration, _C3DConstraintApplyBillboard, 
                       _C3DConstraintApplyConstantScale, _C3DConstraintApplyDistance, 
                       _C3DConstraintApplyIK, _C3DConstraintApplyLookAt, _C3DConstraintApplyProcedural, 
                       _C3DConstraintApplyReplicator, _C3DConstraintAvoidOccluderGetTypeID, 
                       _C3DConstraintAvoidOccluderSetCategoryBitMask, _C3DConstraintAvoidOccluderSetDelegate, 
                       _C3DConstraintAvoidOccluderSetOffset, _C3DConstraintAvoidOccluderSetTarget, 
                       _C3DConstraintBillboardCopyTargetPath, _C3DConstraintBillboardGetTypeID, 
                       _C3DConstraintBillboardSetType, _C3DConstraintConstantScaleCopyTargetPath, 
                       _C3DConstraintConstantScaleGetTypeID, _C3DConstraintControllerCreate, 
                       _C3DConstraintControllerGetTypeID, _C3DConstraintControllerInitializeConstraint, 
                       _C3DConstraintCreateAcceleration, _C3DConstraintCreateAvoidOccluder, 
                       _C3DConstraintCreateBillboard, _C3DConstraintCreateConstantScale, 
                       _C3DConstraintCreateDistance, _C3DConstraintCreateIK, _C3DConstraintCreateLookAt, 
                       _C3DConstraintCreateProcedural, _C3DConstraintCreateReplicator, 
                       _C3DConstraintCreateSlider, _C3DConstraintDistanceCopyTargetPath, 
                       _C3DConstraintDistanceGetTypeID, _C3DConstraintDistanceSetKeepTargetDirection, 
                       _C3DConstraintDistanceSetMaximumDistance, _C3DConstraintDistanceSetMinimumDistance, 
                       _C3DConstraintDistanceSetTarget, _C3DConstraintDistanceSetTargetDirection, 
                       _C3DConstraintGetIncremental, _C3DConstraintGetName, _C3DConstraintGetTargetModelPath, 
                       _C3DConstraintGetTypeID, _C3DConstraintIKCopyTargetPath, _C3DConstraintIKGetTypeID, 
                       _C3DConstraintIKSetChainRoot, _C3DConstraintIKSetMaxRotationForNode, 
                       _C3DConstraintIKSetTarget, _C3DConstraintInit, _C3DConstraintLookAtCopyTargetPath, 
                       _C3DConstraintLookAtGetTypeID, _C3DConstraintLookAtSetGimbalLockEnabled, 
                       _C3DConstraintLookAtSetLocalFront, _C3DConstraintLookAtSetTarget, 
                       _C3DConstraintLookAtSetTargetOffset, _C3DConstraintLookAtSetUpVector, 
                       _C3DConstraintManagerAppendAuthoringInfo, _C3DConstraintManagerApply, 
                       _C3DConstraintManagerCreate, _C3DConstraintManagerGetTypeID, 
                       _C3DConstraintManagerSetConstraintsForKey, _C3DConstraintProceduralCopyTargetPath, 
                       _C3DConstraintProceduralCreateCopy, _C3DConstraintProceduralGetTypeID, 
                       _C3DConstraintReplicatorCopyTargetPath, _C3DConstraintReplicatorGetTypeID, 
                       _C3DConstraintReplicatorSetOrientationEnabled, _C3DConstraintReplicatorSetOrientationOffset, 
                       _C3DConstraintReplicatorSetPositionEnabled, _C3DConstraintReplicatorSetPositionOffset, 
                       _C3DConstraintReplicatorSetScaleEnabled, _C3DConstraintReplicatorSetScaleOffset, 
                       _C3DConstraintReplicatorSetTarget, _C3DConstraintSetEnabled, 
                       _C3DConstraintSetIncremental, _C3DConstraintSetInfluenceFactor, 
                       _C3DConstraintSetName, _C3DConstraintSliderGetTypeID, _C3DContraintAppendAuthoringInfo, 
                       _C3DContraintSetShowDebugInfo, _C3DControlPointsDrawerFunc, 
                       _C3DConvertBatch, _C3DConvertDoubleToFloat, _C3DConvertFloatToDouble, 
                       _C3DConvertFloatingTypeFromFloat4, _C3DConvertFloatingTypeToFloat4, 
                       _C3DConvertFromPlatformIndependentData, _C3DConvertGLSLShaderToMetal, 
                       _C3DConvertGetConverter, _C3DConvertGetReadToFloat4Function, 
                       _C3DConvertIsConvertible, _C3DConvertPRSUnitAndUpAxis, _C3DConvertToPlatformIndependentData, 
                       _C3DConvert_char4n_to_float4, _C3DConvert_float2_to_half2, 
                       _C3DConvert_float2_to_short2n, _C3DConvert_float2_to_ushort2n, 
                       _C3DConvert_float3_to_char4n, _C3DConvert_float3_to_half4, 
                       _C3DConvert_float3_to_snorm10a2, _C3DConvert_float3_to_uchar4n, 
                       _C3DConvert_float3_to_unorm10a2, _C3DConvert_float4_to_char4n, 
                       _C3DConvert_float4_to_half4, _C3DConvert_float4_to_uchar4n, 
                       _C3DConvert_half2_to_float2, _C3DConvert_half4_to_float3, 
                       _C3DConvert_half4_to_float4, _C3DConvert_short2n_to_float2, 
                       _C3DConvert_snorm10a2_to_float3, _C3DConvert_uchar4n_to_float4, 
                       _C3DConvert_unorm10a2_to_float3, _C3DConvert_ushort2n_to_float2, 
                       _C3DConvexPolyhedronClipAABB, _C3DConvexPolyhedronClipPlane, 
                       _C3DConvexPolyhedronComputeBox, _C3DConvexPolyhedronComputeBoxInSpace, 
                       _C3DConvexPolyhedronComputeCenter, _C3DConvexPolyhedronCreate, 
                       _C3DConvexPolyhedronGetEdgeCount, _C3DConvexPolyhedronGetEdges, 
                       _C3DConvexPolyhedronGetTypeID, _C3DConvexPolyhedronGetVertices, 
                       _C3DConvexPolyhedronGetVerticesCount, _C3DConvexPolyhedronSetAABB, 
                       _C3DConvexPolyhedronSetFrustum, _C3DConvexPolyhedronSetOBB, 
                       _C3DConvexPolyhedronTransform, _C3DCopyHostToLittleEndianRepresentationOfData, 
                       _C3DCopyInstanceVariables, _C3DCopyLittleEndianToHostRepresentationOfData, 
                       _C3DCopyPropertyList, _C3DCopyRelativeFromFileURL, _C3DCopyRelativeFromFolderURL, 
                       _C3DCopyResolvedPathFromPath, _C3DCopyResolvedURLFromFileURL, 
                       _C3DCopyURLOfResourceNamed, _C3DCopyUTIForURL, _C3DCreateCGBitmapContextRefFromCGImageRef, 
                       _C3DCreateCStringFromString, _C3DCreateCStringFromStringWithEncoding, 
                       _C3DCreateCopy, _C3DCreateDataWithContentOfURL, _C3DCreateDefaultCameraNode, 
                       _C3DCreateFlattenedGeometryFromNodeHierarchy, _C3DCreateFlattenedMeshFromNodeHierarchy, 
                       _C3DCreateImageSourceWithURL, _C3DCreateLinearSRGBBitmapContextWithSize, 
                       _C3DCreateMutableArrayWithContentsOfSet, _C3DCreateNormalsWithMesh, 
                       _C3DCreatePathComponentsFromString, _C3DCreatePathFromComponents, 
                       _C3DCreatePathWithPath, _C3DCreateProgram, _C3DCreatePropertyListFromArray, 
                       _C3DCreatePropertyListFromC3DFloatBuffer, _C3DCreatePropertyListFromDictionary, 
                       _C3DCreatePropertyListFromFloatBuffer, _C3DCreatePropertyListFromScene, 
                       _C3DCreateRandomDirectionImageWithSize, _C3DCreateRandomImageWithSize, 
                       _C3DCreateRandomRotationImageWithSize, _C3DCreateRenderContext, 
                       _C3DCreateSRGBBitmapContextWithContext, _C3DCreateSRGBBitmapContextWithSize, 
                       _C3DCreateSerializedDataFromC3DFloatBuffer, _C3DCreateStringWithContentOfURL, 
                       _C3DCreateStringWithContentsOfFile, _C3DCreateTexTangentWithGeometry, 
                       _C3DCreateTexTangentWithGeometryOptimized, _C3DCreateTextureFromIOSurface, 
                       _C3DCreateTransformedGeometry, _C3DCreateUnitSphere, _C3DCreateUnitWireframeCubeWithColor, 
                       _C3DCreateUnitWireframeSphereWithColor, _C3DCreateWireFrameCube, 
                       _C3DCullingContextCull, _C3DCullingContextInitialize, _C3DCullingContextPushRenderableElementsToVisible, 
                       _C3DCullingSystemAABBIntersect, _C3DCullingSystemAdd, _C3DCullingSystemComputeBoundingBoxInFrustum, 
                       _C3DCullingSystemComputeHierarchicalAABB, _C3DCullingSystemComputeMergedAABB, 
                       _C3DCullingSystemCreate, _C3DCullingSystemCull, _C3DCullingSystemGetAABBFunction, 
                       _C3DCullingSystemGetBoundingBox, _C3DCullingSystemGetCullFunction, 
                       _C3DCullingSystemGetMergeAABBFunction, _C3DCullingSystemGetRayFunction, 
                       _C3DCullingSystemGetSceneBoundingBox, _C3DCullingSystemQueryCreate, 
                       _C3DCullingSystemRayIntersect, _C3DCullingSystemRemove, _C3DCullingSystemUpdateBoundingBox, 
                       _C3DCullingSystemUpdateFlags, _C3DCullingSystemUpdateWorldBoundingBox, 
                       _C3DCullingSystemUpdateWorldTransforms, _C3DCustomAllocatorAllocBlock, 
                       _C3DCustomAllocatorBiggestFreeBlock, _C3DCustomAllocatorCreateWithHeapSize, 
                       _C3DCustomAllocatorDump, _C3DCustomAllocatorFreeBlock, _C3DCustomAllocatorGetTypeID, 
                       _C3DCustomAllocatorGroupAllocatorForSize, _C3DCustomAllocatorGroupAllocators, 
                       _C3DCustomAllocatorGroupAllocatorsCount, _C3DCustomAllocatorGroupCreate, 
                       _C3DCustomAllocatorGroupGetTypeID, _C3DCustomAllocatorHead, 
                       _C3DCustomAllocatorHeapSize, _C3DCylinderCreateMesh, _C3DCylinderGeneratePointsCallBack, 
                       _C3DCylinderGetBoundingBox, _C3DCylinderGetBoundingBoxForCylinderParameters, 
                       _C3DCylinderGetBoundingSphere, _C3DCylinderGetBoundingSphereForCylinderParameters, 
                       _C3DDataCreateOptimizedIndices, _C3DDataFromMTLBuffer, _C3DDeduceSphericalHarmonicsOrderFromDataLength, 
                       _C3DDelaunayTriangulationForSimplePlanarPolygon, _C3DDictionaryBooleanValueForKey, 
                       _C3DDictionaryFloatValueForKey, _C3DDictionaryNamed, _C3DDiscretizerFunc, 
                       _C3DDrawCirceAtPoint, _C3DDrawCrossAtPoint, _C3DDrawNumberAtPoint, 
                       _C3DDrawSmallCrossAtPoint, _C3DDynamicBatchingSystemAdd, _C3DDynamicBatchingSystemCreate, 
                       _C3DDynamicBatchingSystemCurrentBatchAppend, _C3DDynamicBatchingSystemCurrentBatchCount, 
                       _C3DDynamicBatchingSystemCurrentBatchReset, _C3DDynamicBatchingSystemGetCurrentBatchNodes, 
                       _C3DDynamicBatchingSystemGetMaxBatchSize, _C3DDynamicBatchingSystemGetNodes, 
                       _C3DDynamicBatchingSystemGetTypeID, _C3DDynamicBatchingSystemReset, 
                       _C3DDynamicBatchingSystemSetMaxBatchSize, _C3DEAGLContextAreShared, 
                       _C3DEAGLWrapperContextRelease, _C3DEAGLWrapperContextRetain, 
                       _C3DEdgeArrayAddEdge, _C3DEdgeArrayCreateFromMeshElement, 
                       _C3DEdgeArrayCreateMutableWithCapacity, _C3DEdgeArrayGetCount, 
                       _C3DEdgeArrayGetEdgeAtIndex, _C3DEdgeArrayGetEdges, _C3DEdgeArrayGetTypeID, 
                       _C3DEdgeCrossingSegment, _C3DEffectCommonProfileContainsContentForEffectProperty, 
                       _C3DEffectCommonProfileContentIsOpaqueForEffectProperty, _C3DEffectCommonProfileCopy, 
                       _C3DEffectCommonProfileCreate, _C3DEffectCommonProfileDefaultColorForEffectProperty, 
                       _C3DEffectCommonProfileDefaultFloatValueForEffectProperty, 
                       _C3DEffectCommonProfileGetAvoidsOverLighting, _C3DEffectCommonProfileGetColor, 
                       _C3DEffectCommonProfileGetColorLuminanceModulatedByIntensity, 
                       _C3DEffectCommonProfileGetColorModulatedByIntensity, _C3DEffectCommonProfileGetConstantAlpha, 
                       _C3DEffectCommonProfileGetEffectPropertyHashCode, _C3DEffectCommonProfileGetEffectSlot, 
                       _C3DEffectCommonProfileGetEnableLockAmbientWithDiffuse, _C3DEffectCommonProfileGetEnableNormals, 
                       _C3DEffectCommonProfileGetFloatProperty, _C3DEffectCommonProfileGetHashCode, 
                       _C3DEffectCommonProfileGetImage, _C3DEffectCommonProfileGetImageProxy, 
                       _C3DEffectCommonProfileGetImagesCount, _C3DEffectCommonProfileGetIntensity, 
                       _C3DEffectCommonProfileGetLightingModel, _C3DEffectCommonProfileGetLinearDepth, 
                       _C3DEffectCommonProfileGetNormalizeNormals, _C3DEffectCommonProfileGetSelfIlluminationOcclusion, 
                       _C3DEffectCommonProfileGetTexture, _C3DEffectCommonProfileGetTextureSampler, 
                       _C3DEffectCommonProfileGetTransparencyMode, _C3DEffectCommonProfileGetTypeID, 
                       _C3DEffectCommonProfileGetUVSet, _C3DEffectCommonProfileGetWriteDepthInShader, 
                       _C3DEffectCommonProfileHasConstantAlpha, _C3DEffectCommonProfileIsEffectPropertyEnabledForLightingModel, 
                       _C3DEffectCommonProfileIsOpaque, _C3DEffectCommonProfileIsPerPixelLit, 
                       _C3DEffectCommonProfileIsUsingAmbientOcclusion, _C3DEffectCommonProfileIsUsingMappingChannel, 
                       _C3DEffectCommonProfileIsUsingSelfIllumination, _C3DEffectCommonProfileLightingModelForName, 
                       _C3DEffectCommonProfileNameForLightingModel, _C3DEffectCommonProfileSetAvoidsOverLighting, 
                       _C3DEffectCommonProfileSetColor, _C3DEffectCommonProfileSetEnableLockAmbientWithDiffuse, 
                       _C3DEffectCommonProfileSetEnableNormals, _C3DEffectCommonProfileSetFloatProperty, 
                       _C3DEffectCommonProfileSetImage, _C3DEffectCommonProfileSetImageProxy, 
                       _C3DEffectCommonProfileSetIntensity, _C3DEffectCommonProfileSetLightingModel, 
                       _C3DEffectCommonProfileSetLinearDepth, _C3DEffectCommonProfileSetMTLTexture, 
                       _C3DEffectCommonProfileSetNormalizeNormals, _C3DEffectCommonProfileSetPerPixelLit, 
                       _C3DEffectCommonProfileSetSelfIlluminationOcclusion, _C3DEffectCommonProfileSetTexture, 
                       _C3DEffectCommonProfileSetTextureSampler, _C3DEffectCommonProfileSetTransparencyMode, 
                       _C3DEffectCommonProfileSetUVSet, _C3DEffectCommonProfileSetWriteDepthInShader, 
                       _C3DEffectCommonProfileUVSetIsSet, _C3DEffectPropertyGetNameStr, 
                       _C3DEffectPropertyGetSemanticForColorIsRawFloatValue, _C3DEffectSlotCopy, 
                       _C3DEffectSlotCreate, _C3DEffectSlotDefaultSRGBForPropertyType, 
                       _C3DEffectSlotGetColor, _C3DEffectSlotGetColorIfApplicable, 
                       _C3DEffectSlotGetEffectProperty, _C3DEffectSlotGetHashCode, 
                       _C3DEffectSlotGetImage, _C3DEffectSlotGetImageProxy, _C3DEffectSlotGetImageTransform, 
                       _C3DEffectSlotGetIntensity, _C3DEffectSlotGetMTLTexture, _C3DEffectSlotGetSRGB, 
                       _C3DEffectSlotGetTexture, _C3DEffectSlotGetTextureComponents, 
                       _C3DEffectSlotGetTextureInfo, _C3DEffectSlotGetTextureOptions, 
                       _C3DEffectSlotGetTextureSampler, _C3DEffectSlotGetTypeID, 
                       _C3DEffectSlotGetUVSet, _C3DEffectSlotHasImageOrTexture, _C3DEffectSlotHasImageTransform, 
                       _C3DEffectSlotIsOpaque, _C3DEffectSlotIsValid, _C3DEffectSlotSetColor, 
                       _C3DEffectSlotSetHasNoContents, _C3DEffectSlotSetImage, _C3DEffectSlotSetImageProxy, 
                       _C3DEffectSlotSetImageTransform, _C3DEffectSlotSetIntensity, 
                       _C3DEffectSlotSetMTLTexture, _C3DEffectSlotSetSRGB, _C3DEffectSlotSetTexture, 
                       _C3DEffectSlotSetTextureComponents, _C3DEffectSlotSetTextureFromImageProxy, 
                       _C3DEffectSlotSetTextureSampler, _C3DEffectSlotSetUVSet, _C3DEngineContextApplyModifiers, 
                       _C3DEngineContextAttachVRAMResourceToImage, _C3DEngineContextCleanup, 
                       _C3DEngineContextComputeNormalMatrix, _C3DEngineContextCreate, 
                       _C3DEngineContextCreateSharedContext, _C3DEngineContextCreateSharedContextWithOptions, 
                       _C3DEngineContextCreateWithGLContext, _C3DEngineContextCreateWithOptions, 
                       _C3DEngineContextDrawFullScreenQuad, _C3DEngineContextEvaluateProgram, 
                       _C3DEngineContextEvaluateProgramWithHashCode, _C3DEngineContextGetAudioListener, 
                       _C3DEngineContextGetAuthoringEnvironment, _C3DEngineContextGetAuthoringEnvironmentByCreatingIfNeeded, 
                       _C3DEngineContextGetAutoAdjustZRange, _C3DEngineContextGetBackgroundTextureProxy, 
                       _C3DEngineContextGetBooleanOptionForKey, _C3DEngineContextGetClearsOnDraw, 
                       _C3DEngineContextGetCommonProfileProgramGenerator, _C3DEngineContextGetCoordinatesSystemOptions, 
                       _C3DEngineContextGetDefaultLightNode, _C3DEngineContextGetDefaultPointOfView, 
                       _C3DEngineContextGetDeferredProgramForHashCode, _C3DEngineContextGetDeltaTime, 
                       _C3DEngineContextGetDeviceOrientation, _C3DEngineContextGetDrawableSafeAreaInsets, 
                       _C3DEngineContextGetDrawableSize, _C3DEngineContextGetEnvironmentCubeMesh, 
                       _C3DEngineContextGetFXContext, _C3DEngineContextGetFrameIndex, 
                       _C3DEngineContextGetGLContext, _C3DEngineContextGetIsolateMode, 
                       _C3DEngineContextGetMainClearColor, _C3DEngineContextGetMatrix4x4, 
                       _C3DEngineContextGetMaxDrawingCommand, _C3DEngineContextGetNextFrameTime, 
                       _C3DEngineContextGetPointOfCulling, _C3DEngineContextGetPointOfView, 
                       _C3DEngineContextGetPointOfViewForCulling, _C3DEngineContextGetPointOfViewScale, 
                       _C3DEngineContextGetQuadMesh, _C3DEngineContextGetRenderCallbacks, 
                       _C3DEngineContextGetRenderContext, _C3DEngineContextGetRendererContext, 
                       _C3DEngineContextGetRendererContextProfile, _C3DEngineContextGetRendererElementState, 
                       _C3DEngineContextGetRenderingOptionForKey, _C3DEngineContextGetResidentImage, 
                       _C3DEngineContextGetResidentMeshElement, _C3DEngineContextGetResidentMeshSource, 
                       _C3DEngineContextGetResourceManager, _C3DEngineContextGetScene, 
                       _C3DEngineContextGetSceneTime, _C3DEngineContextGetStats, 
                       _C3DEngineContextGetSystemTime, _C3DEngineContextGetTextureForEffectSlot, 
                       _C3DEngineContextGetTextureWithName, _C3DEngineContextGetTypeID, 
                       _C3DEngineContextGetUserInfo, _C3DEngineContextGetViewport, 
                       _C3DEngineContextGetWarmUpAbortHandler, _C3DEngineContextHasFeatures, 
                       _C3DEngineContextHasMotionBlur, _C3DEngineContextIsDeferredShadingEnabled, 
                       _C3DEngineContextIsMetalRenderer, _C3DEngineContextIsWarmUp, 
                       _C3DEngineContextMultMatrix4x4, _C3DEngineContextRenderBackgroundMap, 
                       _C3DEngineContextRenderMainTechnique, _C3DEngineContextRenderNodeTree, 
                       _C3DEngineContextRenderScene, _C3DEngineContextRenderSubTechnique, 
                       _C3DEngineContextRendererContextGetSupportsFeatureSet, _C3DEngineContextResetAudioListener, 
                       _C3DEngineContextResetMatrices, _C3DEngineContextResetNextFrameTime, 
                       _C3DEngineContextSetAudioListener, _C3DEngineContextSetAutoAdjustZRange, 
                       _C3DEngineContextSetBackgroundTextureProxy, _C3DEngineContextSetClearsOnDraw, 
                       _C3DEngineContextSetDefaultPointOfView, _C3DEngineContextSetDeltaTime, 
                       _C3DEngineContextSetDeviceOrientation, _C3DEngineContextSetDrawableSafeAreaInsets, 
                       _C3DEngineContextSetDrawableSize, _C3DEngineContextSetFXContext, 
                       _C3DEngineContextSetForceShaderReload, _C3DEngineContextSetGLContext, 
                       _C3DEngineContextSetIsolateMode, _C3DEngineContextSetMainClearColor, 
                       _C3DEngineContextSetMatrix4x4, _C3DEngineContextSetMaxDrawingCommand, 
                       _C3DEngineContextSetMotionBlur, _C3DEngineContextSetNextFrameTime, 
                       _C3DEngineContextSetNextFrameTimeToAsap, _C3DEngineContextSetPointOfCulling, 
                       _C3DEngineContextSetPointOfView, _C3DEngineContextSetRenderContext, 
                       _C3DEngineContextSetRenderingOptionForKey, _C3DEngineContextSetScene, 
                       _C3DEngineContextSetSceneTime, _C3DEngineContextSetSystemTime, 
                       _C3DEngineContextSetUserInfo, _C3DEngineContextSetViewport, 
                       _C3DEngineContextSetupForWarmUp, _C3DEngineContextSetupWithScene, 
                       _C3DEngineContextShouldForceShaderReload, _C3DEngineContextSynchronizeDefaultLight, 
                       _C3DEngineContextUnSetupForWarmUp, _C3DEngineNotificationQueueApplyForEntityType, 
                       _C3DEngineNotificationQueueContainsNotificationsForEntityType, 
                       _C3DEngineNotificationQueueCreate, _C3DEngineNotificationQueueEnqueueEvent, 
                       _C3DEngineNotificationQueueGetTypeID, _C3DEngineNotificationQueueStartObserving, 
                       _C3DEngineNotificationQueueStopObserving, _C3DEngineNotificationQueueSwapForApplying, 
                       _C3DEnginePipelineAddNodeForKeyIfAbsent, _C3DEnginePipelineAddNodeToRendering, 
                       _C3DEnginePipelineApplyForAllRendererElements, _C3DEnginePipelineApplyNotificationQueue, 
                       _C3DEnginePipelineCreate, _C3DEnginePipelineGetNodesForKey, 
                       _C3DEnginePipelineGetNotificationQueue, _C3DEnginePipelineGetRendererElementStore, 
                       _C3DEnginePipelineGetScene, _C3DEnginePipelineGetTypeID, _C3DEnginePipelineGetValuesCountForKey, 
                       _C3DEnginePipelineRemoveNodeForAllKeys, _C3DEnginePipelineRemoveNodeForKey, 
                       _C3DEnginePipelineRemoveNodeFromRendering, _C3DEnginePipelineRemoveNodesForKey, 
                       _C3DEnginePipelineRenderSubTree, _C3DEnginePipelineReset, 
                       _C3DEnginePipelineStartObserving, _C3DEnginePipelineStopObserving, 
                       _C3DEnginePipelineSyncNodeAttribute, _C3DEnginePipelineUpdateNode, 
                       _C3DEnginePipelineUpdateNodeRendererElements, _C3DEngineStatsEndFrameAndCopy, 
                       _C3DEngineStatsFinish, _C3DEngineStatsLogFrameStats, _C3DEngineStatsLogResourcesStats, 
                       _C3DEngineStatsMergeResourceStats, _C3DEngineStatsReset, _C3DEngineStatsResetResourceStats, 
                       _C3DEntityAddAction, _C3DEntityAddAnimationForKey, _C3DEntityAddBinding, 
                       _C3DEntityCFFinalize, _C3DEntityCopyPropertyList, _C3DEntityCopyTo, 
                       _C3DEntityEnumerateKeyValuesWithBlock, _C3DEntityGetAnimations, 
                       _C3DEntityGetAttribute, _C3DEntityGetAttributes, _C3DEntityGetID, 
                       _C3DEntityGetName, _C3DEntityGetObjCWrapper, _C3DEntityGetShaderModifiers, 
                       _C3DEntityGetTypeID, _C3DEntityGetValueForKey, _C3DEntityGetValueStorageModificationCount, 
                       _C3DEntityHasAttribute, _C3DEntityHasShaderModifiers, _C3DEntityInitWithPropertyList, 
                       _C3DEntityIsTypeSupportingShaderModifiers, _C3DEntityLockScene, 
                       _C3DEntityRemoveActionForKey, _C3DEntityRemoveAllActions, 
                       _C3DEntityRemoveAllAnimations, _C3DEntityRemoveAllBindings, 
                       _C3DEntityRemoveAnimationForKey, _C3DEntityRemoveBindingWithKeyPath, 
                       _C3DEntityResolveKeypathInKeyValueStore, _C3DEntitySetAttribute, 
                       _C3DEntitySetAttributes, _C3DEntitySetID, _C3DEntitySetName, 
                       _C3DEntitySetObjCWrapper, _C3DEntitySetShaderModifiers, _C3DEntitySetValueForKey, 
                       _C3DEntityUnlockScene, _C3DEntityWillRemoveFromScene, _C3DEqual, 
                       _C3DErrorCreate, _C3DExecuteIncrementalProgressBlock, _C3DExecuteProgressBlock, 
                       _C3DExecuteProgressBlocks, _C3DExportImageAndGetRelativePath, 
                       _C3DExtractFrustumPlanesFromMVP, _C3DFXContextAddPassInstance, 
                       _C3DFXContextAppendTechnique, _C3DFXContextBumpTimestamp, 
                       _C3DFXContextCleanup, _C3DFXContextCreate, _C3DFXContextCreateCullingData, 
                       _C3DFXContextGetCIContext, _C3DFXContextGetCurrentPassInstance, 
                       _C3DFXContextGetCurrentPassInstanceAncestor, _C3DFXContextGetEnableSampleDistributedRange, 
                       _C3DFXContextGetEnableTemporalSMAA, _C3DFXContextGetFirstPassInstanceWithName, 
                       _C3DFXContextGetFrameBufferFeatures, _C3DFXContextGetFramebufferRegistry, 
                       _C3DFXContextGetFramebuffersCacheWithKey, _C3DFXContextGetMainPass, 
                       _C3DFXContextGetMainPassInstance, _C3DFXContextGetMirrorNode, 
                       _C3DFXContextGetOutlinePass, _C3DFXContextGetOutputColorTexture, 
                       _C3DFXContextGetOutputDepthTexture, _C3DFXContextGetOutputFramebuffer, 
                       _C3DFXContextGetProcessedPassKeys, _C3DFXContextGetRenderingEye, 
                       _C3DFXContextGetSMAAJitteringSeed, _C3DFXContextGetSampleDistributedRange, 
                       _C3DFXContextGetTimestamp, _C3DFXContextGetTypeID, _C3DFXContextGetViewport, 
                       _C3DFXContextIsMainPass, _C3DFXContextReleaseCullingData, 
                       _C3DFXContextRemoveAllPassInstances, _C3DFXContextSceneDidChange, 
                       _C3DFXContextSetEnablePasses, _C3DFXContextSetEnableSampleDistributedRange, 
                       _C3DFXContextSetPostProcessTechnique, _C3DFXContextSetSampleDistributedRange, 
                       _C3DFXContextSetViewport, _C3DFXContextSetup, _C3DFXContextTechniquesDidChange, 
                       _C3DFXGLSLProgramCopyAttributesNames, _C3DFXGLSLProgramCopyIndexedUniformsNames, 
                       _C3DFXGLSLProgramCopyUniforms, _C3DFXGLSLProgramCreate, _C3DFXGLSLProgramCreateBuiltInProgramWithName, 
                       _C3DFXGLSLProgramCreateWithName, _C3DFXGLSLProgramCreateWithSources, 
                       _C3DFXGLSLProgramGetAttributeIndex, _C3DFXGLSLProgramGetDefaultProgram, 
                       _C3DFXGLSLProgramGetNextUniformIndex, _C3DFXGLSLProgramGetShader, 
                       _C3DFXGLSLProgramGetShaderSources, _C3DFXGLSLProgramGetShaders, 
                       _C3DFXGLSLProgramGetTypeID, _C3DFXGLSLProgramGetUniformIndex, 
                       _C3DFXGLSLProgramObjectApplyFunctionForAttributes, _C3DFXGLSLProgramObjectApplyFunctionForUniforms, 
                       _C3DFXGLSLProgramObjectAttachWithProgram, _C3DFXGLSLProgramObjectCreateWithProgramID, 
                       _C3DFXGLSLProgramObjectDetachOfProgram, _C3DFXGLSLProgramObjectGetAttributeLocationOfSymbolNamed, 
                       _C3DFXGLSLProgramObjectGetProgramID, _C3DFXGLSLProgramObjectGetTypeID, 
                       _C3DFXGLSLProgramObjectGetUniformIndex, _C3DFXGLSLProgramObjectGetUniformLocation, 
                       _C3DFXGLSLProgramObjectGetUniformLocationOfSymbolNamed, _C3DFXGLSLProgramObjectGetUniformValueAtIndex, 
                       _C3DFXGLSLProgramObjectGetUniformsCount, _C3DFXGLSLProgramObjectSetUniformValueAtIndex, 
                       _C3DFXGLSLProgramObjectSetUniformsLocations, _C3DFXGLSLProgramResetNextUniformIndex, 
                       _C3DFXGLSLProgramSetAttributeIndex, _C3DFXGLSLProgramSetShader, 
                       _C3DFXGLSLProgramSetUniformIndex, _C3DFXGLSLProgramValueTrackerAlloc, 
                       _C3DFXGetEnableJittering, _C3DFXGetJitteringPresentationMode, 
                       _C3DFXGetUpdatesMainFrameBuffer, _C3DFXInvalidatePasses, _C3DFXJitteringGetCurrentIteration, 
                       _C3DFXJitteringGetTotalIterations, _C3DFXJitteringReset, _C3DFXJitteringSetUpdatesMainFrameBuffer, 
                       _C3DFXMetalProgramCreate, _C3DFXMetalProgramCreateFromEmbeddedSource, 
                       _C3DFXMetalProgramCreateFromLibrary, _C3DFXMetalProgramCreateFromSource, 
                       _C3DFXMetalProgramCreateWithFunctionNamesAndConstants, _C3DFXMetalProgramGetBufferBindings, 
                       _C3DFXMetalProgramGetCommonProfileHashCode, _C3DFXMetalProgramGetConstants, 
                       _C3DFXMetalProgramGetFunctionName, _C3DFXMetalProgramGetLibrary, 
                       _C3DFXMetalProgramGetPreprocessorsMacros, _C3DFXMetalProgramGetSourceCode, 
                       _C3DFXMetalProgramGetTypeID, _C3DFXMetalProgramReplaceSourceCodeWithLibrary, 
                       _C3DFXMetalProgramSetBufferBinding, _C3DFXMetalProgramSetCommonProfileHashCode, 
                       _C3DFXPassAddInputWithName, _C3DFXPassAddInputsWithDescription, 
                       _C3DFXPassAddOutputsWithDescription, _C3DFXPassBindInputWithSemantic, 
                       _C3DFXPassBindInputWithSymbol, _C3DFXPassCleanup, _C3DFXPassCreate, 
                       _C3DFXPassDidExecute, _C3DFXPassExecute, _C3DFXPassGetBlendStates, 
                       _C3DFXPassGetClearColor, _C3DFXPassGetClearDepth, _C3DFXPassGetClearStencil, 
                       _C3DFXPassGetDrawInstruction, _C3DFXPassGetDrawOnlyShadowCaster, 
                       _C3DFXPassGetExcludeCategoryMask, _C3DFXPassGetForceJitteringOff, 
                       _C3DFXPassGetFramebufferDescription, _C3DFXPassGetHasCustomViewport, 
                       _C3DFXPassGetIgnoreInifiniteFloor, _C3DFXPassGetIncludeCategoryMask, 
                       _C3DFXPassGetInputWithName, _C3DFXPassGetInstallViewport, 
                       _C3DFXPassGetMaterial, _C3DFXPassGetMirrorNode, _C3DFXPassGetName, 
                       _C3DFXPassGetNodes, _C3DFXPassGetOutputClearColorForBufferType, 
                       _C3DFXPassGetOutputHasSpecificClearColorForBufferType, _C3DFXPassGetOutputNameForBufferType, 
                       _C3DFXPassGetOutputUseCountForBufferType, _C3DFXPassGetOverridingProgramHashCode, 
                       _C3DFXPassGetPointOfView, _C3DFXPassGetProgram, _C3DFXPassGetProgramIsOpaque, 
                       _C3DFXPassGetRasterizerStates, _C3DFXPassGetRootNode, _C3DFXPassGetSkipUpdateMainFrameBuffer, 
                       _C3DFXPassGetSourceRendererElement, _C3DFXPassGetStorage, 
                       _C3DFXPassGetSubViewport, _C3DFXPassGetTypeID, _C3DFXPassGetUpdatesMainFrameBuffer, 
                       _C3DFXPassGetUserInfo, _C3DFXPassGetUsesSceneBackgroundColor, 
                       _C3DFXPassGetViewport, _C3DFXPassHasConstantAlpha, _C3DFXPassInitialize, 
                       _C3DFXPassInputCreate, _C3DFXPassInputGetSymbolName, _C3DFXPassInputGetTypeID, 
                       _C3DFXPassInputSetBindingBlock, _C3DFXPassInputSetChannelIndex, 
                       _C3DFXPassInputSetSampler, _C3DFXPassInputSetSemantic, _C3DFXPassInputSetSymbolName, 
                       _C3DFXPassInputSetUniformIndex, _C3DFXPassInstanceGetPass, 
                       _C3DFXPassIsEnabled, _C3DFXPassIsOverridingPrograms, _C3DFXPassIsTopLevel, 
                       _C3DFXPassRequireFBO, _C3DFXPassRequiresLighting, _C3DFXPassReshape, 
                       _C3DFXPassSetBlendStates, _C3DFXPassSetCleanupCallback, _C3DFXPassSetClearBehavior, 
                       _C3DFXPassSetClearColor, _C3DFXPassSetClearDepthStencilValue, 
                       _C3DFXPassSetClientProgram, _C3DFXPassSetDidExecuteCallback, 
                       _C3DFXPassSetDrawInstruction, _C3DFXPassSetEnabled, _C3DFXPassSetExecuteCallback, 
                       _C3DFXPassSetForceJitteringOff, _C3DFXPassSetHasConstantAlpha, 
                       _C3DFXPassSetInitializeCallback, _C3DFXPassSetInstallViewport, 
                       _C3DFXPassSetMaterial, _C3DFXPassSetMetalFragmentShaderFunction, 
                       _C3DFXPassSetMetalLibraryName, _C3DFXPassSetMetalVertexShaderFunction, 
                       _C3DFXPassSetMirrorNode, _C3DFXPassSetName, _C3DFXPassSetNodes, 
                       _C3DFXPassSetPointOfView, _C3DFXPassSetProgram, _C3DFXPassSetProgramIsOpaque, 
                       _C3DFXPassSetProgramName, _C3DFXPassSetRasterizerStates, _C3DFXPassSetReshapeCallback, 
                       _C3DFXPassSetRootNode, _C3DFXPassSetSetupCallback, _C3DFXPassSetShouldExecuteCallback, 
                       _C3DFXPassSetSkipUpdateMainFrameBuffer, _C3DFXPassSetSourceRendererElement, 
                       _C3DFXPassSetSubViewport, _C3DFXPassSetUpdatesMainFrameBuffer, 
                       _C3DFXPassSetUserInfo, _C3DFXPassSetUsesSceneBackgroundColor, 
                       _C3DFXPassSetViewport, _C3DFXPassSetWillExecuteCallback, _C3DFXPassSetup, 
                       _C3DFXPassSetup2PassesBlurCallbacks, _C3DFXPassSetupWithPropertyList, 
                       _C3DFXPassShouldClearColor, _C3DFXPassShouldClearDepth, _C3DFXPassShouldClearStencil, 
                       _C3DFXPassShouldExecute, _C3DFXPassWillExecute, _C3DFXProgramCFFinalize, 
                       _C3DFXProgramDelegateCreate, _C3DFXProgramDelegateGetCallbacks, 
                       _C3DFXProgramDelegateGetTypeID, _C3DFXProgramDelegateGetUserInfo, 
                       _C3DFXProgramGetDelegate, _C3DFXProgramGetProfile, _C3DFXProgramInitialize, 
                       _C3DFXProgramIsClientProgram, _C3DFXProgramIsOpaque, _C3DFXProgramSetClientProgram, 
                       _C3DFXProgramSetDelegate, _C3DFXProgramSetOpaque, _C3DFXProgramSetProfile, 
                       _C3DFXSamplerCreate, _C3DFXSamplerGetImage, _C3DFXSamplerGetTexture, 
                       _C3DFXSamplerGetTextureSampler, _C3DFXSamplerGetTypeID, _C3DFXSamplerSetImage, 
                       _C3DFXSamplerSetTexture, _C3DFXSamplerSetTextureSampler, _C3DFXSemanticIsAttribute, 
                       _C3DFXSetEnableJittering, _C3DFXSetJitteringPresentationMode, 
                       _C3DFXShaderCreate, _C3DFXShaderGetSource, _C3DFXShaderGetStage, 
                       _C3DFXShaderGetTypeID, _C3DFXShaderSetSource, _C3DFXShadowMapTargetNameWithNode, 
                       _C3DFXTechniqueAddSubTechnique, _C3DFXTechniqueAddSymbolWithBindingBlock, 
                       _C3DFXTechniqueAppendPass, _C3DFXTechniqueCompile, _C3DFXTechniqueConsumesMainDepth, 
                       _C3DFXTechniqueCreateAuthoring, _C3DFXTechniqueCreateBySequencingTechniques, 
                       _C3DFXTechniqueCreateCIFilter, _C3DFXTechniqueCreateDefault, 
                       _C3DFXTechniqueCreateDeferredShadingDefault, _C3DFXTechniqueCreateDepthOfField, 
                       _C3DFXTechniqueCreateFloor, _C3DFXTechniqueCreateJittering, 
                       _C3DFXTechniqueCreateMotionBlur, _C3DFXTechniqueCreateOutline, 
                       _C3DFXTechniqueCreateOutlineRetina, _C3DFXTechniqueCreateSpotShadow, 
                       _C3DFXTechniqueCreateWithCapacity, _C3DFXTechniqueCreateWithDescription, 
                       _C3DFXTechniqueDeclareSymbol, _C3DFXTechniqueEnsureThatPassesShouldExecute, 
                       _C3DFXTechniqueGetDescription, _C3DFXTechniqueGetLastRenderedTimestamp, 
                       _C3DFXTechniqueGetNullTechnique, _C3DFXTechniqueGetOwner, 
                       _C3DFXTechniqueGetParentTechnique, _C3DFXTechniqueGetPassAtIndex, 
                       _C3DFXTechniqueGetPassCount, _C3DFXTechniqueGetPassNamed, 
                       _C3DFXTechniqueGetSingleProgram, _C3DFXTechniqueGetSubTechniques, 
                       _C3DFXTechniqueGetTypeID, _C3DFXTechniqueGetValueForSymbol, 
                       _C3DFXTechniqueGetValueOffsetForSymbol, _C3DFXTechniqueIsBeingRendered, 
                       _C3DFXTechniqueIsOpaque, _C3DFXTechniqueMarkAsUsed, _C3DFXTechniqueSetDescription, 
                       _C3DFXTechniqueSetIsOpaque, _C3DFXTechniqueSetOwner, _C3DFXTechniqueSetParentTechnique, 
                       _C3DFXTechniqueSetValueForSymbol, _C3DFXTechniqueSetValueForSymbolWithCount, 
                       _C3DFaceDestroy, _C3DFaceInit, _C3DFileMayExistAtURL, _C3DFillLibraryForSerialization, 
                       _C3DFinalizeDeserialization, _C3DFloat2Make, _C3DFloat3Make, 
                       _C3DFloat3MakeNormalized, _C3DFloat3Max, _C3DFloat3Min, _C3DFloorCreate, 
                       _C3DFloorGetBoundingBoxWithExtent, _C3DFloorGetLength, _C3DFloorGetReflectionCategoryBitMask, 
                       _C3DFloorGetReflectionFalloffEnd, _C3DFloorGetReflectionFalloffStart, 
                       _C3DFloorGetReflectionResolutionScaleFactor, _C3DFloorGetReflectionSampleCount, 
                       _C3DFloorGetReflectivity, _C3DFloorGetTypeID, _C3DFloorGetWidth, 
                       _C3DFloorSetLength, _C3DFloorSetReflectionCategoryBitMask, 
                       _C3DFloorSetReflectionFalloffEnd, _C3DFloorSetReflectionFalloffStart, 
                       _C3DFloorSetReflectionResolutionScaleFactor, _C3DFloorSetReflectionSampleCount, 
                       _C3DFloorSetReflectivity, _C3DFloorSetWidth, _C3DFrameBufferRegistryGetCountOfFBO, 
                       _C3DFrameBufferRegistryGetCountOfRenderTarget, _C3DFramebufferAddRenderTarget, 
                       _C3DFramebufferAddRenderTargetDescription, _C3DFramebufferApplyToRenderTargets, 
                       _C3DFramebufferCleanup, _C3DFramebufferCreate, _C3DFramebufferDescriptionSetSampleCount, 
                       _C3DFramebufferDescriptionSetViewportDependant, _C3DFramebufferGetFBO, 
                       _C3DFramebufferGetRenderTarget, _C3DFramebufferGetRenderTargetDescriptions, 
                       _C3DFramebufferGetSampleCount, _C3DFramebufferGetSize, _C3DFramebufferGetTextureWithSlot, 
                       _C3DFramebufferGetTypeID, _C3DFramebufferRegistryBumpTimestamp, 
                       _C3DFramebufferRegistryCleanup, _C3DFramebufferRegistryCreate, 
                       _C3DFramebufferRegistryFinalizeAndGetFramebuffer, _C3DFramebufferRegistryFinalizeFrame, 
                       _C3DFramebufferRegistryGetEnableRecycling, _C3DFramebufferRegistryGetRenderTargetWithName, 
                       _C3DFramebufferRegistryGetTextureWithName, _C3DFramebufferRegistryGetTypeID, 
                       _C3DFramebufferRegistryPrepareFramebufferWithDescription, 
                       _C3DFramebufferRegistryPurge, _C3DFramebufferRegistryReleaseFramebuffer, 
                       _C3DFramebufferRegistryReleaseRenderTarget, _C3DFramebufferRegistryReleaseTextureWithName, 
                       _C3DFramebufferRegistryReplaceTextureWithNameByTexture, _C3DFramebufferRegistryRetainTextureWithName, 
                       _C3DFramebufferRegistrySetEnableRecycling, _C3DFramebufferRegistryTrackFBO, 
                       _C3DFramebufferRegistryViewportDidResize, _C3DFramebufferSetFBO, 
                       _C3DFramebufferSetSampleCount, _C3DFramebufferSetSize, _C3DFrustumClassifyGeometry, 
                       _C3DGLFormatToComponentCount, _C3DGLSLGetTypeName, _C3DGLSLGetUniformType, 
                       _C3DGLSLIntrospectProgramObject, _C3DGLSLProfileBindPassInputs, 
                       _C3DGLSLProfileBindProfileInputs, _C3DGLTextureTypePixelSize, 
                       _C3DGaussianSolve, _C3DGenericSourceCreate, _C3DGenericSourceCreateCopy, 
                       _C3DGenericSourceCreateDeepCopy, _C3DGenericSourceCreateDeserializedDataWithAccessors, 
                       _C3DGenericSourceCreateEmpty, _C3DGenericSourceCreateMutable, 
                       _C3DGenericSourceCreateMutableCopy, _C3DGenericSourceCreateSerializedDataWithAccessors, 
                       _C3DGenericSourceGetAccessor, _C3DGenericSourceGetContent, 
                       _C3DGenericSourceGetData, _C3DGenericSourceGetMTLBuffer, _C3DGenericSourceGetOwnData, 
                       _C3DGenericSourceGetSourceDidChangeDelegationBlock, _C3DGenericSourceGetTypeID, 
                       _C3DGenericSourceInit, _C3DGenericSourceInitCopy, _C3DGenericSourceInitDeepCopy, 
                       _C3DGenericSourceInitMutableCopy, _C3DGenericSourceIsMutable, 
                       _C3DGenericSourceIsPrimary, _C3DGenericSourceIsVolatile, _C3DGenericSourceMakeImmutable, 
                       _C3DGenericSourceMarkMutable, _C3DGenericSourceSetAccessor, 
                       _C3DGenericSourceSetData, _C3DGenericSourceSetMTLBuffer, _C3DGenericSourceSetSourceDidChangeDelegationBlock, 
                       _C3DGenericSourceSetVolatileData, _C3DGenericSourcesHaveSharedData, 
                       _C3DGeometryAppendMaterial, _C3DGeometryBarycenter, _C3DGeometryCopy, 
                       _C3DGeometryCreate, _C3DGeometryCreateCopy, _C3DGeometryCreateInterleavedCopy, 
                       _C3DGeometryCreateMutableCopy, _C3DGeometryCreateRenderableCopy, 
                       _C3DGeometryCreateSmoothIcosahedron, _C3DGeometryCreateTextureTangentsIfNeeded, 
                       _C3DGeometryCreateWithMeshSourcesAndMeshElements, _C3DGeometryEnableDynamicBatching, 
                       _C3DGeometryFinalizeSubdivision, _C3DGeometryGeneratePoints, 
                       _C3DGeometryGetIndexOfMaterial, _C3DGeometryGetLOD, _C3DGeometryGetMaterialAtIndex, 
                       _C3DGeometryGetMaterialsCount, _C3DGeometryGetMesh, _C3DGeometryGetName, 
                       _C3DGeometryGetOverrideMaterial, _C3DGeometryGetRenderingMesh, 
                       _C3DGeometryGetTypeID, _C3DGeometryGetWantsHardwareTessellation, 
                       _C3DGeometryInit, _C3DGeometryInitSubdivision, _C3DGeometryInsertMaterialAtIndex, 
                       _C3DGeometryIsAlwaysRendered, _C3DGeometryIsDynamicBatchingEnabled, 
                       _C3DGeometryMakeSourcesCheaperWhenRelevant, _C3DGeometryMergeMeshes, 
                       _C3DGeometryMeshElementsSupportsTessellation, _C3DGeometryOsdGetCPUSubdividedC3DMesh, 
                       _C3DGeometryOsdGetEdgeCreasesElement, _C3DGeometryOsdGetEdgeCreasesSource, 
                       _C3DGeometryOsdGetPrimvarDataTypeHash, _C3DGeometryOsdGetSubdivisionLevel, 
                       _C3DGeometryOsdGetSubdivisionSettings, _C3DGeometryOsdGetWantsAdaptiveSubdivision, 
                       _C3DGeometryOsdGetWantsCPUSubdivision, _C3DGeometryOsdGetWantsGPUSubdivision, 
                       _C3DGeometryOsdGetWantsSubdivision, _C3DGeometryOsdSetEdgeCreasesElement, 
                       _C3DGeometryOsdSetEdgeCreasesSource, _C3DGeometryOsdSetSubdivisionLevel, 
                       _C3DGeometryOsdSetSubdivisionSettings, _C3DGeometryOsdSetWantsAdaptiveSubdivision, 
                       _C3DGeometryRemoveAllMaterials, _C3DGeometryRemoveMaterialAtIndex, 
                       _C3DGeometryReplaceMaterialAtIndex, _C3DGeometrySetBoundingBox, 
                       _C3DGeometrySetLOD, _C3DGeometrySetMesh, _C3DGeometrySetName, 
                       _C3DGeometrySetOverrideMaterial, _C3DGeometrySetValidationCallBack, 
                       _C3DGeometryTrackNode, _C3DGeometryUntrackNode, _C3DGetBoundingBox, 
                       _C3DGetBoundingSphere, _C3DGetCPUCaps, _C3DGetFileDecryptionCallbacks, 
                       _C3DGetGLErrorName, _C3DGetGeometryPropertiesToDefines, _C3DGetInfoPlistFlagIsSet, 
                       _C3DGetOBBRelativePositionAgainstFrustum, _C3DGetResidentMeshElement, 
                       _C3DGetScene, _C3DGetSceneRef, _C3DGetShaderCacheLibraryURL, 
                       _C3DGetShaderCompilationDirectory, _C3DGetShadingLanguageFromSource, 
                       _C3DGetSurfacePropertiesToDefines, _C3DGetTextResourceWithName, 
                       _C3DGetTexturePropertiesToDefines, _C3DGetValue, _C3DGetValueGetter, 
                       _C3DGetValueSetter, _C3DGlyphCreate, _C3DGlyphGetTypeID, _C3DHSBToRGB, 
                       _C3DHitTestContextFillOptionsFromDictionary, _C3DHitTestResultCreate, 
                       _C3DHitTestResultCreateFromBulletResults, _C3DHitTestResultCreateWithJoint, 
                       _C3DHitTestResultCreateWithNodeOrigin, _C3DHitTestResultGetFaceIndex, 
                       _C3DHitTestResultGetGeometryIndex, _C3DHitTestResultGetJoint, 
                       _C3DHitTestResultGetLocalCoordinate, _C3DHitTestResultGetLocalNormal, 
                       _C3DHitTestResultGetModelTransform, _C3DHitTestResultGetNode, 
                       _C3DHitTestResultGetSmoothedLocalCoordinate, _C3DHitTestResultGetSmoothedLocalNormal, 
                       _C3DHitTestResultGetSmoothedWorldCoordinate, _C3DHitTestResultGetSmoothedWorldNormal, 
                       _C3DHitTestResultGetTextureCoordinate, _C3DHitTestResultGetTypeID, 
                       _C3DHitTestResultGetWorldCoordinate, _C3DHitTestResultGetWorldNormal, 
                       _C3DHitTestResultSetNode, _C3DIOCopyFilePathByChangingExtension, 
                       _C3DIOCopyLastPathComponent, _C3DIOCopyResolvedImageURL, _C3DIOCopyTrimmedCString, 
                       _C3DIOCopyURLForInitialURL, _C3DIOCreateCFStringFromCString, 
                       _C3DIOCreateCPathFromCFURL, _C3DIOCreateCStringFromCFString, 
                       _C3DIOCreateImageFromURLAndPreloadIfNeeded, _C3DIOCreateImportContextFromOptions, 
                       _C3DIOCreateOptionsForRealtimeViewer, _C3DIOCreateRandomIdentifier, 
                       _C3DIOCreateSceneAtURL, _C3DIOCreateSceneWithData, _C3DIOCreateStringFromCFURL, 
                       _C3DIOCreateUnzippedData, _C3DIOCreateZippedData, _C3DIOFinalizeLoadScene, 
                       _C3DIOFlipColladaMatrix, _C3DIOImportContextShouldInvertOpacity, 
                       _C3DIONeedsUnitOrUpAxisConversion, _C3DIOReadFloatVectorFromCString, 
                       _C3DIOSetUpSafeModeLimitations, _C3DIOSurfaceToTexImage, _C3DIOWriteSceneToURL, 
                       _C3DIO_COLLADA_CanWriteSceneLossLess, _C3DIO_COLLADA_WriteScene, 
                       _C3DImageCacheBitmap, _C3DImageCacheImageWithSource, _C3DImageChangeImageTypeTo3DIfSuitable, 
                       _C3DImageChangeImageTypeToCubeMapIfSuitable, _C3DImageChangeImageTypeToStripCubeMapIfSuitable, 
                       _C3DImageCopyBitmap, _C3DImageCopyCGImage, _C3DImageCopyCachedImageForSource, 
                       _C3DImageCreate, _C3DImageCreateVerticalStripCubemapWithFaceImages, 
                       _C3DImageCreateVerticalStripCubemapWithImage, _C3DImageCreateWithCGImage, 
                       _C3DImageCreateWithCGImageAndSize, _C3DImageCreateWithCatalogTextureNameAndSize, 
                       _C3DImageCreateWithClientImage, _C3DImageCreateWithData, _C3DImageCreateWithMDLTexture, 
                       _C3DImageCreateWithName, _C3DImageCreateWithPath, _C3DImageCreateWithRawData, 
                       _C3DImageCreateWithURL, _C3DImageEnumerateCubeMapFacePixelBuffers, 
                       _C3DImageEnumerateTexture3DSlicePixelBuffers, _C3DImageGetAttribute, 
                       _C3DImageGetCatalogTextureName, _C3DImageGetData, _C3DImageGetDefault, 
                       _C3DImageGetDepth, _C3DImageGetImageType, _C3DImageGetName, 
                       _C3DImageGetSize, _C3DImageGetTextureRawData, _C3DImageGetTextureRawDataCompression, 
                       _C3DImageGetTextureRawDataMipmapLevelCount, _C3DImageGetTextureSize, 
                       _C3DImageGetTypeID, _C3DImageGetURL, _C3DImageHasAlpha, _C3DImageHasCubeMapComplexLayout, 
                       _C3DImageHasTextureRawData, _C3DImageIsCatalogTexture, _C3DImageIsConvertibleToCubeMap, 
                       _C3DImageIsCubeMap, _C3DImageIsValid, _C3DImageNeedsUnpremultiply, 
                       _C3DImageProxyCreate, _C3DImageProxyCreateTextureProxy, _C3DImageProxyGetCaptureDeviceInfo, 
                       _C3DImageProxyGetSource, _C3DImageProxyGetSourceType, _C3DImageProxyGetTypeID, 
                       _C3DImageProxyIsOpaque, _C3DImageProxyIsPremultiplied, _C3DImageProxySetCallbacks, 
                       _C3DImageProxySetSource, _C3DImageReleaseBitmapCache, _C3DImageSetAttribute, 
                       _C3DImageSetNeedsUnpremultiply, _C3DImageToMDLTexture, _C3DIndexSetAddIndex, 
                       _C3DIndexSetAddIndexes, _C3DIndexSetAddIndexesInRange, _C3DIndexSetContainsIndex, 
                       _C3DIndexSetCreate, _C3DIndexSetCreateIntersectionOfIndexSets, 
                       _C3DIndexSetCreateMutable, _C3DIndexSetCreateMutableCopy, 
                       _C3DIndexSetCreateUnionOfIndexSets, _C3DIndexSetCreateWithIndex, 
                       _C3DIndexSetCreateWithIndexSet, _C3DIndexSetCreateWithIndexesInRange, 
                       _C3DIndexSetGetCount, _C3DIndexSetGetFirstIndex, _C3DIndexSetGetIndexGreaterOrEqualThanIndex, 
                       _C3DIndexSetGetIndexGreaterThanIndex, _C3DIndexSetGetIndexLessOrEqualThanIndex, 
                       _C3DIndexSetGetIndexLessThanIndex, _C3DIndexSetGetIndexes, 
                       _C3DIndexSetGetLastIndex, _C3DIndexSetGetLastRange, _C3DIndexSetGetTypeID, 
                       _C3DIndexSetIsEqualToIndexSet, _C3DIndexSetRemoveAllIndexes, 
                       _C3DIndexSetRemoveIndex, _C3DIndexSetRemoveIndexes, _C3DIndexSetRemoveIndexesInRange, 
                       _C3DIndexStoreAddIndexForKey, _C3DIndexStoreAddIndexForKeyCheckingIfPresent, 
                       _C3DIndexStoreCreateWithCapacity, _C3DIndexStoreGetCount, 
                       _C3DIndexStoreGetIndexForKey, _C3DIndexStoreGetMaxIndex, _C3DIndexStoreGetOrderedIndexForKey, 
                       _C3DIndexStoreGetTypeID, _C3DIndexStoreRemoveAllIndexes, _C3DIndexStoreRemoveIndexForKey, 
                       _C3DIndicesContentEnumeratePrimitives, _C3DInitC3DFloatArrayWithPropertyList, 
                       _C3DInitC3DFloatArrayWithSerializedData, _C3DInitFloatArrayWithPropertyList, 
                       _C3DInitWithPropertyList, _C3DInstanceVariableDescriptionGetAddress, 
                       _C3DIntersectionLinePlane, _C3DIntersectionLineTriangle3, 
                       _C3DIntersectionRay3Plane, _C3DIntersectionRay3Sphere, _C3DIntersectionRay3Triangle3, 
                       _C3DIntersectionSegment3Plane, _C3DIntersectionSegment3Sphere, 
                       _C3DIntersectionSegment3Triangle3, _C3DIntersectsLineBoundingBox, 
                       _C3DIntersectsLineQuad, _C3DIntersectsRay3BoundingBox, _C3DIntersectsRay3Quad, 
                       _C3DIntersectsSegment3BoundingBox, _C3DIntersectsSegment3Quad, 
                       _C3DIsConstraint, _C3DIsOrderedDictionary, _C3DIsPathSuperpathOfPath, 
                       _C3DIsRunningInEditor, _C3DIsRunningInSCNTool, _C3DIsRunningInXcode, 
                       _C3DJsonNamed, _C3DKeyFrameInterpolatorForType, _C3DKeyFrameInterpolatorGetSemantic, 
                       _C3DKeyValueStoreCreate, _C3DKeyValueStoreEnumerate, _C3DKeyValueStoreGetTimestamp, 
                       _C3DKeyValueStoreGetTypeID, _C3DKeyValueStoreGetValueForKey, 
                       _C3DKeyValueStoreRemoveValueForKey, _C3DKeyValueStoreSetValueForKey, 
                       _C3DKeyValueStoreSetupModelTargetWithKey, _C3DKeyframeAnimationCreateWithClusteredKeyframe, 
                       _C3DKeyframeControllerCopyBiasValuesAsGenericSource, _C3DKeyframeControllerCopyContinuityValuesAsGenericSource, 
                       _C3DKeyframeControllerCopyInTangentsAsGenericSource, _C3DKeyframeControllerCopyInterpolationModesAsGenericSource, 
                       _C3DKeyframeControllerCopyKeyTimesAsGenericSource, _C3DKeyframeControllerCopyOutTangentsAsGenericSource, 
                       _C3DKeyframeControllerCopyTensionValuesAsGenericSource, _C3DKeyframeControllerCopyTimingFunctionsAsGenericSource, 
                       _C3DKeyframeControllerCopyValuesAsGenericSource, _C3DKeyframeControllerCreate, 
                       _C3DKeyframeControllerCreateWithCapacity, _C3DKeyframeControllerCreateWithPropertyList, 
                       _C3DKeyframeControllerEvaluateAtTime, _C3DKeyframeControllerGetBiasAtIndex, 
                       _C3DKeyframeControllerGetCalculationMode, _C3DKeyframeControllerGetContinuityAtIndex, 
                       _C3DKeyframeControllerGetDefaultInterpolationMode, _C3DKeyframeControllerGetDuration, 
                       _C3DKeyframeControllerGetInTangentsAtIndex, _C3DKeyframeControllerGetKeyCount, 
                       _C3DKeyframeControllerGetKeyTimeAtIndex, _C3DKeyframeControllerGetKeyframeSemantic, 
                       _C3DKeyframeControllerGetKeyframeType, _C3DKeyframeControllerGetOutTangentsAtIndex, 
                       _C3DKeyframeControllerGetProxyOutput, _C3DKeyframeControllerGetTensionAtIndex, 
                       _C3DKeyframeControllerGetTimingFunctionAtIndex, _C3DKeyframeControllerGetTypeID, 
                       _C3DKeyframeControllerGetValueAtIndex, _C3DKeyframeControllerGetValueComponentCount, 
                       _C3DKeyframeControllerGetValueType, _C3DKeyframeControllerHasInterpolationModesPerKey, 
                       _C3DKeyframeControllerHasTCB, _C3DKeyframeControllerHasTimingFunctions, 
                       _C3DKeyframeControllerProxySetTarget, _C3DKeyframeControllerRemoveUselessKeys, 
                       _C3DKeyframeControllerSetCalculationMode, _C3DKeyframeControllerSetDefaultInterpolationMode, 
                       _C3DKeyframeControllerSetKeyframeAtIndex, _C3DKeyframeControllerSetupKeyTimesForPacedMode, 
                       _C3DKeyframedAnimationCopy, _C3DKeyframedAnimationCreate, 
                       _C3DKeyframedAnimationEvaluate, _C3DKeyframedAnimationGetController, 
                       _C3DKeyframedAnimationGetTypeID, _C3DKeyframedAnimationSetController, 
                       _C3DKeyframedAnimationSetup, _C3DLODCreate, _C3DLODGetEntity, 
                       _C3DLODGetThreshold, _C3DLODGetThresholdType, _C3DLODGetTypeID, 
                       _C3DLibraryAddEntry, _C3DLibraryAddEntryWithUniqueID, _C3DLibraryApplyEntriesWithType, 
                       _C3DLibraryContainsEntry, _C3DLibraryContainsImageWithURL, 
                       _C3DLibraryContainsUniqueID, _C3DLibraryCopyEntriesWithKind, 
                       _C3DLibraryCopyIDsWithKind, _C3DLibraryCopyKinds, _C3DLibraryCreate, 
                       _C3DLibraryCreateEntryIdentifier, _C3DLibraryFillWithContentOfScene, 
                       _C3DLibraryGetEntry, _C3DLibraryGetEntryAndKindFromEntryIdentifier, 
                       _C3DLibraryGetEntryID, _C3DLibraryGetEntryInfo, _C3DLibraryGetEntryWithDocumentID, 
                       _C3DLibraryGetEntryWithUniqueID, _C3DLibraryGetImageWithURL, 
                       _C3DLibraryGetMemoryUsageForKind, _C3DLibraryGetRemappedID, 
                       _C3DLibraryGetSerializedDictionary, _C3DLibraryGetStringForType, 
                       _C3DLibraryGetSubStorage, _C3DLibraryGetTypeForString, _C3DLibraryGetTypeID, 
                       _C3DLibraryRemoveAllEntries, _C3DLibraryRemoveEntry, _C3DLibraryReplaceEntry, 
                       _C3DLibrarySubStorageGetTypeID, _C3DLibraryTrackID, _C3DLightAddLightSHContribution, 
                       _C3DLightComputeSpotAttenuations, _C3DLightCreate, _C3DLightCreateCopy, 
                       _C3DLightGetAttenuationAtPoint, _C3DLightGetAttenuationEndDistance, 
                       _C3DLightGetAttenuationFalloffExponent, _C3DLightGetAttenuationStartDistance, 
                       _C3DLightGetAutomaticallyAdjustsShadowProjection, _C3DLightGetBaked, 
                       _C3DLightGetCastsShadow, _C3DLightGetCategoryBitMask, _C3DLightGetColor, 
                       _C3DLightGetColorModulatedByIntensity, _C3DLightGetEffectiveShadowSampleCount, 
                       _C3DLightGetEnableSampleDistributed, _C3DLightGetForceCasterBackFaceOnly, 
                       _C3DLightGetGobo, _C3DLightGetIES, _C3DLightGetIntensity, 
                       _C3DLightGetIrradianceSH, _C3DLightGetMaximumShadowDistance, 
                       _C3DLightGetOrthographicScale, _C3DLightGetProbeTexture, _C3DLightGetProgramHashCode, 
                       _C3DLightGetProjectionInfo, _C3DLightGetRealShadowMapSize, 
                       _C3DLightGetShadowBias, _C3DLightGetShadowCascadeCount, _C3DLightGetShadowCascadeDebugFactor, 
                       _C3DLightGetShadowCascadeSplittingFactor, _C3DLightGetShadowColor, 
                       _C3DLightGetShadowMapSize, _C3DLightGetShadowRadius, _C3DLightGetShadowSampleCount, 
                       _C3DLightGetSpotFalloffExponent, _C3DLightGetSpotInnerAngle, 
                       _C3DLightGetSpotOuterAngle, _C3DLightGetTechnique, _C3DLightGetTemperature, 
                       _C3DLightGetType, _C3DLightGetTypeID, _C3DLightGetUsesDeferredShadows, 
                       _C3DLightGetUsesModulatedMode, _C3DLightGetZFar, _C3DLightGetZNear, 
                       _C3DLightHasValidGobo, _C3DLightHasValidIES, _C3DLightIsBlack, 
                       _C3DLightProbesBeginQueries, _C3DLightProbesEndQueries, _C3DLightProbesQueryBoxSH3, 
                       _C3DLightProbesQuerySH2, _C3DLightProbesQuerySH3, _C3DLightProbesSetGlobalSH3, 
                       _C3DLightProbesSystemCreate, _C3DLightProbesSystemGetSphericalHarmonicsOrder, 
                       _C3DLightProbesSystemGetTypeID, _C3DLightProbesSystemSetProbeData, 
                       _C3DLightProbesSystemSetProbesCount, _C3DLightProbesSystemSetSphericalHarmonicsOrder, 
                       _C3DLightSetAttenuationEndDistance, _C3DLightSetAttenuationFalloffExponent, 
                       _C3DLightSetAttenuationStartDistance, _C3DLightSetAutomaticallyAdjustsShadowProjection, 
                       _C3DLightSetBaked, _C3DLightSetCastsShadow, _C3DLightSetCategoryBitMask, 
                       _C3DLightSetColor, _C3DLightSetEnableSampleDistributed, _C3DLightSetForceCasterBackFaceOnly, 
                       _C3DLightSetIntensity, _C3DLightSetIrradianceSH, _C3DLightSetMaximumShadowDistance, 
                       _C3DLightSetOrthographicScale, _C3DLightSetProbeTexture, _C3DLightSetShadowBias, 
                       _C3DLightSetShadowCascadeCount, _C3DLightSetShadowCascadeDebugFactor, 
                       _C3DLightSetShadowCascadeSplittingFactor, _C3DLightSetShadowColor, 
                       _C3DLightSetShadowMapSize, _C3DLightSetShadowRadius, _C3DLightSetShadowSampleCount, 
                       _C3DLightSetSpotFalloffExponent, _C3DLightSetSpotInnerAngle, 
                       _C3DLightSetSpotOuterAngle, _C3DLightSetTechnique, _C3DLightSetTemperature, 
                       _C3DLightSetType, _C3DLightSetUsesDeferredShadows, _C3DLightSetUsesModulatedMode, 
                       _C3DLightSetZFar, _C3DLightSetZNear, _C3DLightShouldAdjustsShadowProjection, 
                       _C3DLightSupportsShadowCascades, _C3DLightTypeSupportsShadow, 
                       _C3DLightUsesNonContantAttenuation, _C3DLightingSystemAdd, 
                       _C3DLightingSystemAppendForwardShadowingTechniques, _C3DLightingSystemApplyActiveNonAmbientLights, 
                       _C3DLightingSystemApplyDirectionals, _C3DLightingSystemApplyPoints, 
                       _C3DLightingSystemApplySpots, _C3DLightingSystemBeginDeferredRendering, 
                       _C3DLightingSystemBeginProcessing, _C3DLightingSystemBeginQueries, 
                       _C3DLightingSystemCheckLightingSetTextureUsage, _C3DLightingSystemComputeShadowMatrices, 
                       _C3DLightingSystemCreate, _C3DLightingSystemEndDeferredRendering, 
                       _C3DLightingSystemEndProcessing, _C3DLightingSystemEndQueries, 
                       _C3DLightingSystemGetActiveNonAmbientLightCount, _C3DLightingSystemGetAmbientLighting, 
                       _C3DLightingSystemGetInfiniteLightSet, _C3DLightingSystemGetLightProbesSystem, 
                       _C3DLightingSystemGetLightingContext, _C3DLightingSystemGetLightingSetDesc, 
                       _C3DLightingSystemGetLightingSetProgramHashCodes, _C3DLightingSystemGetShadowTechniqueForNode, 
                       _C3DLightingSystemGetSphericalHarmonicsOrder, _C3DLightingSystemGetTypeID, 
                       _C3DLightingSystemInvalidateShadowTechniqueForLight, _C3DLightingSystemLightDidUpdate, 
                       _C3DLightingSystemLightTransformDidUpdate, _C3DLightingSystemNextFrame, 
                       _C3DLightingSystemQuery, _C3DLightingSystemRemove, _C3DLightingSystemSetMainRenderingFrustums, 
                       _C3DLightingSystemSetShadowTechniqueForNode, _C3DLightingSystemSetSphericalHarmonicsOrder, 
                       _C3DLinearRenderingIsEnabled, _C3DLinkFromTriangleToTriangle, 
                       _C3DLinkFromTriangleWithEdge, _C3DLinkIndexFromTriangleToTriangle, 
                       _C3DLinkIndicesFromTriangleToTriangle, _C3DListAddLinkableObjectFirst, 
                       _C3DListAddLinkableObjectLast, _C3DListCreate, _C3DListGetCount, 
                       _C3DListGetLastLinkableObject, _C3DListGetLinkableObjectAtIndex, 
                       _C3DListGetTypeID, _C3DListMoveLinkableObjectFirst, _C3DListNodeCreate, 
                       _C3DListNodeGetTypeID, _C3DListNodeGetValue, _C3DListNodeSetValue, 
                       _C3DListRemoveAllObjects, _C3DListRemoveLinkableObject, _C3DLogMatrix, 
                       _C3DMakePowerOfTwo, _C3DMakeVector2, _C3DMakeVector3, _C3DMalloc, 
                       _C3DMallocWithName, _C3DMaterialCopy, _C3DMaterialCopyEffectPropertyList, 
                       _C3DMaterialCopyForFlatShading, _C3DMaterialCreate, _C3DMaterialCreateCopy, 
                       _C3DMaterialCreateDefault, _C3DMaterialDefaultUVSetForProperty, 
                       _C3DMaterialGetBlendMode, _C3DMaterialGetBlendStates, _C3DMaterialGetColor, 
                       _C3DMaterialGetColorBufferWriteMask, _C3DMaterialGetCommonProfile, 
                       _C3DMaterialGetCommonProfileIfNoTechnique, _C3DMaterialGetCullMode, 
                       _C3DMaterialGetEnableReadsFromDepthBuffer, _C3DMaterialGetEnableWriteInDepthBuffer, 
                       _C3DMaterialGetFillMode, _C3DMaterialGetFloatProperty, _C3DMaterialGetImage, 
                       _C3DMaterialGetName, _C3DMaterialGetRasterizerStates, _C3DMaterialGetTechnique, 
                       _C3DMaterialGetTextureSampler, _C3DMaterialGetTypeID, _C3DMaterialGetValueStorageModificationCount, 
                       _C3DMaterialIsDoubleSided, _C3DMaterialIsOpaque, _C3DMaterialSetBlendMode, 
                       _C3DMaterialSetColor, _C3DMaterialSetColorBufferWriteMask, 
                       _C3DMaterialSetCullMode, _C3DMaterialSetDoubleSided, _C3DMaterialSetEnableReadFromDepthBuffer, 
                       _C3DMaterialSetEnableWriteInDepthBuffer, _C3DMaterialSetFillMode, 
                       _C3DMaterialSetFloatProperty, _C3DMaterialSetImage, _C3DMaterialSetName, 
                       _C3DMaterialSetTechnique, _C3DMaterialSetTextureSampler, _C3DMaterialSetupSinglePassTechniqueWithProgram, 
                       _C3DMaterialTouchValueStorageModificationCount, _C3DMatrix4x4Add, 
                       _C3DMatrix4x4ClearScale, _C3DMatrix4x4ClearTranslation, _C3DMatrix4x4ComputeNormalMatrix, 
                       _C3DMatrix4x4CopyPropertyList, _C3DMatrix4x4Determinant3x3, 
                       _C3DMatrix4x4Distance, _C3DMatrix4x4Dot, _C3DMatrix4x4FromCATransform3D, 
                       _C3DMatrix4x4FromSCNMatrix4, _C3DMatrix4x4GetAffineTransforms, 
                       _C3DMatrix4x4GetAxis, _C3DMatrix4x4GetIdentity, _C3DMatrix4x4GetRotation, 
                       _C3DMatrix4x4GetScale, _C3DMatrix4x4GetTranslation, _C3DMatrix4x4HasNan, 
                       _C3DMatrix4x4InitWithPropertyList, _C3DMatrix4x4Interpolate, 
                       _C3DMatrix4x4Invert, _C3DMatrix4x4IsIdentity, _C3DMatrix4x4Lerp, 
                       _C3DMatrix4x4Make, _C3DMatrix4x4MakeAffine, _C3DMatrix4x4MakeAxisAngleRotation, 
                       _C3DMatrix4x4MakeEulerRotation, _C3DMatrix4x4MakeIdentity, 
                       _C3DMatrix4x4MakeLookAt, _C3DMatrix4x4MakeOrtho_GL, _C3DMatrix4x4MakeOrtho_MTL, 
                       _C3DMatrix4x4MakePerspectiveLegacy_GL, _C3DMatrix4x4MakePerspectiveLegacy_MTL, 
                       _C3DMatrix4x4MakePerspective_GL, _C3DMatrix4x4MakePerspective_MTL, 
                       _C3DMatrix4x4MakeRotation, _C3DMatrix4x4MakeRotationX, _C3DMatrix4x4MakeRotationY, 
                       _C3DMatrix4x4MakeRotationZ, _C3DMatrix4x4MakeScale, _C3DMatrix4x4MakeTranslation, 
                       _C3DMatrix4x4MakeZero, _C3DMatrix4x4Mult, _C3DMatrix4x4Mult3x3, 
                       _C3DMatrix4x4MultFloat, _C3DMatrix4x4PrintMatrix, _C3DMatrix4x4Project, 
                       _C3DMatrix4x4Reset4thColumn, _C3DMatrix4x4Scale, _C3DMatrix4x4SetTranslation, 
                       _C3DMatrix4x4Sub, _C3DMatrix4x4ToCATransform3D, _C3DMatrix4x4ToSCNMatrix4, 
                       _C3DMatrix4x4Translate, _C3DMatrix4x4Transpose, _C3DMemoryBlockCreate, 
                       _C3DMemoryBlockFree, _C3DMeshAddSource, _C3DMeshAppendElement, 
                       _C3DMeshApplySources, _C3DMeshBarycenter, _C3DMeshBuildRenderableData, 
                       _C3DMeshByWeldingVerticesWithTheshold, _C3DMeshCheckValidity, 
                       _C3DMeshContainsSourcesWithSemantic, _C3DMeshCopyAllSources, 
                       _C3DMeshCopyBoundingVolumes, _C3DMeshCopyRenderableSourceAndElements, 
                       _C3DMeshCopySources, _C3DMeshCopyWithTransform, _C3DMeshCreate, 
                       _C3DMeshCreateByMergingMeshes, _C3DMeshCreateCapsule, _C3DMeshCreateChamferBox, 
                       _C3DMeshCreateCone, _C3DMeshCreateCopy, _C3DMeshCreateCopyWithInterleavedSources, 
                       _C3DMeshCreateCylinder, _C3DMeshCreateDeepCopy, _C3DMeshCreateFromProfile, 
                       _C3DMeshCreateGeosphere, _C3DMeshCreatePlane, _C3DMeshCreatePlaneWithOffset, 
                       _C3DMeshCreatePyramid, _C3DMeshCreateRenderableCopy, _C3DMeshCreateRing, 
                       _C3DMeshCreateShape, _C3DMeshCreateSphere, _C3DMeshCreateText, 
                       _C3DMeshCreateTextureTangentsIfNeeded, _C3DMeshCreateTorus, 
                       _C3DMeshCreateTube, _C3DMeshCreateVolatile, _C3DMeshCreateWeldIndirectionTable, 
                       _C3DMeshCreateWithMeshSourcesAndMeshElements, _C3DMeshDidMutate, 
                       _C3DMeshElementComputeACMR, _C3DMeshElementConvertIndexes, 
                       _C3DMeshElementConvertStripToTriangleList, _C3DMeshElementConvertToPolygonArrayIfNeeded, 
                       _C3DMeshElementCreate, _C3DMeshElementCreateByMergingElements, 
                       _C3DMeshElementCreateCopy, _C3DMeshElementCreateDeepCopy, 
                       _C3DMeshElementCreateIntervalList, _C3DMeshElementCreateSubElement, 
                       _C3DMeshElementCreateTriangleStrip, _C3DMeshElementCreateVolatile, 
                       _C3DMeshElementEditorCreate, _C3DMeshElementEditorCreateWithMeshElement, 
                       _C3DMeshElementEditorCreateWithMeshElementAndCapacity, _C3DMeshElementEditorGenerateMeshElement, 
                       _C3DMeshElementEditorGetIndex, _C3DMeshElementEditorGetTypeID, 
                       _C3DMeshElementEditorSplitTriangleAtIndex, _C3DMeshElementEditorSplitTriangleEdgeAtIndex, 
                       _C3DMeshElementEditorSubdivideTriangleAtIndex, _C3DMeshElementGetBytesPerIndex, 
                       _C3DMeshElementGetChannelsDefineSameTopology, _C3DMeshElementGetContent, 
                       _C3DMeshElementGetDoubleSided, _C3DMeshElementGetEmptyElement, 
                       _C3DMeshElementGetIndex, _C3DMeshElementGetIndexCount, _C3DMeshElementGetIndexCountPerPrimitive, 
                       _C3DMeshElementGetIndexCountWithTypeAndPrimitiveCount, _C3DMeshElementGetIndexes, 
                       _C3DMeshElementGetIndicesChannelCount, _C3DMeshElementGetInstanceCount, 
                       _C3DMeshElementGetMaxVertexIndex, _C3DMeshElementGetMaximumPointScreenRadius, 
                       _C3DMeshElementGetMinimumPointScreenRadius, _C3DMeshElementGetPointSize, 
                       _C3DMeshElementGetPrimitiveCount, _C3DMeshElementGetPrimitiveNormals, 
                       _C3DMeshElementGetPrimitiveRange, _C3DMeshElementGetSharedIndexBufferOffset, 
                       _C3DMeshElementGetSharedMeshElement, _C3DMeshElementGetTriangleGroupBoundingBoxes, 
                       _C3DMeshElementGetType, _C3DMeshElementGetTypeID, _C3DMeshElementGetUsesInterleavedIndicesChannels, 
                       _C3DMeshElementGetVertexCountForPrimitiveAtIndex, _C3DMeshElementGetVolatileDataPtr, 
                       _C3DMeshElementInit, _C3DMeshElementInitIndexed, _C3DMeshElementIsVolatile, 
                       _C3DMeshElementOptimizeIndices, _C3DMeshElementPrintData, 
                       _C3DMeshElementSetBytesPerIndex, _C3DMeshElementSetDoubleSided, 
                       _C3DMeshElementSetIndexedPrimitives, _C3DMeshElementSetIndicesChannelCount, 
                       _C3DMeshElementSetInstanceCount, _C3DMeshElementSetMaximumPointScreenRadius, 
                       _C3DMeshElementSetMinimumPointScreenRadius, _C3DMeshElementSetPointSize, 
                       _C3DMeshElementSetPrimitiveNormals, _C3DMeshElementSetPrimitiveRange, 
                       _C3DMeshElementSetPrimitives, _C3DMeshElementSetSharedIndexBufferOffset, 
                       _C3DMeshElementSetSharedMeshElement, _C3DMeshElementSetType, 
                       _C3DMeshElementSetUsesInterleavedIndicesChannels, _C3DMeshElementSetVolatileDataPtr, 
                       _C3DMeshElementTypeDefinesSurface, _C3DMeshElementTypeDefinesTopology, 
                       _C3DMeshGetBoundingBox, _C3DMeshGetBoundingSphere, _C3DMeshGetChannelForSourceAtIndex, 
                       _C3DMeshGetChannelForSourceWithSemanticAtIndex, _C3DMeshGetElementAtIndex, 
                       _C3DMeshGetElementsCount, _C3DMeshGetIndexOfOriginalElement, 
                       _C3DMeshGetInputSetForSource, _C3DMeshGetLayoutTimeStamp, 
                       _C3DMeshGetMeshElements, _C3DMeshGetMorphableSourceMask, _C3DMeshGetMutabilityTimeStamp, 
                       _C3DMeshGetNormalSource, _C3DMeshGetPositionDeindexedToOriginalTable, 
                       _C3DMeshGetPositionOriginalToFirstDeindexedTable, _C3DMeshGetPositionSource, 
                       _C3DMeshGetSourceWithSemanticAtIndex, _C3DMeshGetSourcesCountForSemantic, 
                       _C3DMeshGetTypeID, _C3DMeshIsMutable, _C3DMeshIsVolatile, 
                       _C3DMeshMakeOriginalSourceMutable, _C3DMeshMakeOriginalSourcesMutable, 
                       _C3DMeshMarkMutable, _C3DMeshPackerAllocMeshSource, _C3DMeshPackerAllocVertexIndexes, 
                       _C3DMeshPackerCreate, _C3DMeshPackerFreeVertexArray, _C3DMeshPackerFreeVertexIndexes, 
                       _C3DMeshPackerGetTypeID, _C3DMeshQueryTrianglesIntersectingBox, 
                       _C3DMeshRemoveAllElements, _C3DMeshRemoveAllSources, _C3DMeshRemoveElement, 
                       _C3DMeshRemoveSource, _C3DMeshRemoveSourceWithSemanticAtIndex, 
                       _C3DMeshRemoveSourcesWithSemantic, _C3DMeshResetBoundingVolumes, 
                       _C3DMeshSetMeshElements, _C3DMeshSetMorphableSourceMask, _C3DMeshSetOriginalElementType, 
                       _C3DMeshSetSourceWithInputSet, _C3DMeshSourceAppendCopyOfElement, 
                       _C3DMeshSourceAppendVector2, _C3DMeshSourceAppendVector3, 
                       _C3DMeshSourceContentClassifyAABB, _C3DMeshSourceContentClassifyRay, 
                       _C3DMeshSourceCreate, _C3DMeshSourceCreateAbsoluteSource, 
                       _C3DMeshSourceCreateCopy, _C3DMeshSourceCreateCopyWithBaseType, 
                       _C3DMeshSourceCreateCopyWithComponentsBaseType, _C3DMeshSourceCreateDataByInterleavingSources, 
                       _C3DMeshSourceCreateDeepCopy, _C3DMeshSourceCreateDeltaSource, 
                       _C3DMeshSourceCreateMutable, _C3DMeshSourceCreateMutableCopy, 
                       _C3DMeshSourceCreatePackedCopy, _C3DMeshSourceCreateUnpackedCopy, 
                       _C3DMeshSourceCreateVolatile, _C3DMeshSourceCreateWeldRemappingTable, 
                       _C3DMeshSourceCreateWithAccessor, _C3DMeshSourceCreateWithData, 
                       _C3DMeshSourceEqual, _C3DMeshSourceGetAbsoluteMaxValue, _C3DMeshSourceGetAccessor, 
                       _C3DMeshSourceGetComponentsCountPerValue, _C3DMeshSourceGetComponentsValueType, 
                       _C3DMeshSourceGetContent, _C3DMeshSourceGetCount, _C3DMeshSourceGetData, 
                       _C3DMeshSourceGetDataPtr, _C3DMeshSourceGetInstancingDivisor, 
                       _C3DMeshSourceGetMTLBuffer, _C3DMeshSourceGetMTLVertexFormat, 
                       _C3DMeshSourceGetModelKitSemantic, _C3DMeshSourceGetSemantic, 
                       _C3DMeshSourceGetStride, _C3DMeshSourceGetTypeID, _C3DMeshSourceGetValueAtIndexAsVector2, 
                       _C3DMeshSourceGetValueAtIndexAsVector3, _C3DMeshSourceGetValueAtIndexAsVector4, 
                       _C3DMeshSourceGetValueLength, _C3DMeshSourceGetValueType, 
                       _C3DMeshSourceIsMutable, _C3DMeshSourceIsVolatile, _C3DMeshSourceMakeImmutable, 
                       _C3DMeshSourceOwnsItsData, _C3DMeshSourcePrepareAppend, _C3DMeshSourcePrintData, 
                       _C3DMeshSourceRecreateIfNeeded, _C3DMeshSourceRemoveValuesInRange, 
                       _C3DMeshSourceSemanticForSemanticString, _C3DMeshSourceSemanticToSemanticString, 
                       _C3DMeshSourceSemanticToSerializedSemanticString, _C3DMeshSourceSetInstancingDivisor, 
                       _C3DMeshSourceSetModelKitSemantic, _C3DMeshSourceSetValueAtIndexAsVector2, 
                       _C3DMeshSourceSetValueAtIndexAsVector3, _C3DMeshSourceSetVolatileData, 
                       _C3DMeshSubdivide, _C3DMeshTouchLayout, _C3DMeshUnifyNormals, 
                       _C3DMeshUsesSameChannelForAllSources, _C3DMetalIsSupported, 
                       _C3DMetalIsUsed, _C3DModelDescriptionResolveRootComponentInPath, 
                       _C3DModelPathResolveCommonProfileProperty, _C3DModelPathResolverFindRootEntityForCFType, 
                       _C3DModelPathResolverRegisterClassBegin, _C3DModelPathResolverRegisterClassEnd, 
                       _C3DModelPathResolverRegisterProperty, _C3DModelTargetCreate, 
                       _C3DModelTargetCreateCopy, _C3DModelTargetCreateWithLibraryAndAnimationPath, 
                       _C3DModelTargetGetBaseType, _C3DModelTargetGetComponentIndex, 
                       _C3DModelTargetGetTarget, _C3DModelTargetGetTargetAddress, 
                       _C3DModelTargetGetTypeID, _C3DModelTargetGetTypeSemantic, 
                       _C3DModelTargetSetTarget, _C3DModelTargetSetTargetAddress, 
                       _C3DModelTargetsARotationAngle, _C3DModelValueStorageAddAndRetainModelValue, 
                       _C3DModelValueStorageCreate, _C3DModelValueStorageCreateItem, 
                       _C3DModelValueStorageGetModelValueForAddressIfAny, _C3DModelValueStorageGetModelValueIfAny, 
                       _C3DModelValueStorageGetModelValueType, _C3DModelValueStorageGetTypeID, 
                       _C3DModelValueStorageItemGetTypeID, _C3DModelValueStorageItemRelease, 
                       _C3DModelValueStorageItemRetain, _C3DModelValueStoragePrepareNextFrame, 
                       _C3DModelValueStorageReleaseModelValue, _C3DModelValueStorageReleaseModelValueAndRestorePresentationValueIfNeeded, 
                       _C3DModelValueStorageUpdateItemModelValueWithValue, _C3DModelValueStorageUpdateModelValueFromPresentationValue, 
                       _C3DModelValueStorageUpdateModelValueWithValue, _C3DModelValueStorageUpdateNodePresentationValueInNeeded, 
                       _C3DModelValueStorageUpdatePresentationValueFromModelValue, 
                       _C3DModelValueStorageUpdatePresentationValueInNeeded, _C3DModelValueStorageUpdatePresentationValueWithBytes, 
                       _C3DModelValueStorageUpdatePresentationValueWithTransform, 
                       _C3DModelValueStorageUpdateTimestamp, _C3DModelValueStorageUpdateTimestampOfNode, 
                       _C3DMorphConvertToCalculationMode, _C3DMorphConvertToSparse, 
                       _C3DMorphCreate, _C3DMorphCreateCopy, _C3DMorphCreateTargetNormalsIfNeeded, 
                       _C3DMorphGetCalculationMode, _C3DMorphGetIncrementalThreshold, 
                       _C3DMorphGetIndexOfTargetWithName, _C3DMorphGetMorphNormals, 
                       _C3DMorphGetRuntimeWeights, _C3DMorphGetTargets, _C3DMorphGetTypeID, 
                       _C3DMorphGetWantsCPU, _C3DMorphGetWeightAtIndex, _C3DMorphGetWeightsSource, 
                       _C3DMorphIsUsingSparseTargets, _C3DMorphSetCalculationMode, 
                       _C3DMorphSetInBetweenTargetCounts, _C3DMorphSetInBetweenTargetWeights, 
                       _C3DMorphSetIncrementalThreshold, _C3DMorphSetMorphNormals, 
                       _C3DMorphSetTargets, _C3DMorphSetWantsCPU, _C3DMorphSetWeightAtIndex, 
                       _C3DMorphSetWeightsSource, _C3DMorphShouldUnifyNormals, _C3DMorphUpdate, 
                       _C3DMorphUpdateIncremental, _C3DMorpherBeginIncrementalPass, 
                       _C3DMorpherCreateCopy, _C3DMorpherCreateWith, _C3DMorpherEndIncrementalPass, 
                       _C3DMorpherGetBaseGeometry, _C3DMorpherGetLastMorphedWeights, 
                       _C3DMorpherGetMorph, _C3DMorpherGetMorphedMesh, _C3DMorpherGetTypeID, 
                       _C3DMorpherInputGeometryDidChange, _C3DMorpherResetIncrementalCount, 
                       _C3DMorpherSetBaseGeometry, _C3DMorpherUpdateIfNeeded, _C3DMultBaseTypeWithFloat, 
                       _C3DNeighborSharingVertex, _C3DNeighborSharingVertices, _C3DNodeAddAudioPlayer, 
                       _C3DNodeAddChildNode, _C3DNodeAddParticleSystem, _C3DNodeApplyChildren, 
                       _C3DNodeApplyChildrenInterruptible, _C3DNodeApplyHierarchy, 
                       _C3DNodeApplyHierarchySkippingHiddenNodes, _C3DNodeBoundingBoxDidUpdate, 
                       _C3DNodeComputeHierarchicalBoundingBox, _C3DNodeComputeWorldMatrix, 
                       _C3DNodeComputeWorldTransform, _C3DNodeCopyChildNodesPassingTest, 
                       _C3DNodeCopyNode, _C3DNodeCopyNodesWithAttribute, _C3DNodeCreate, 
                       _C3DNodeCreateCopy, _C3DNodeCreateSubdividedCopy, _C3DNodeDump, 
                       _C3DNodeFindCommonAncestor, _C3DNodeGeometryDidUpdate, _C3DNodeGeometryLODDidUpdate, 
                       _C3DNodeGetAudioPlayers, _C3DNodeGetAxisAngle, _C3DNodeGetBoundingBox, 
                       _C3DNodeGetBoundingBoxOmittingFloor, _C3DNodeGetCamera, _C3DNodeGetCastsShadow, 
                       _C3DNodeGetCategoryBitMask, _C3DNodeGetChildNodeAtIndex, _C3DNodeGetChildNodesCount, 
                       _C3DNodeGetCommonAncestor, _C3DNodeGetConstraints, _C3DNodeGetCountOfAudioPlayers, 
                       _C3DNodeGetCountOfParticleSystems, _C3DNodeGetDebugDisplayName, 
                       _C3DNodeGetDepth, _C3DNodeGetEuler, _C3DNodeGetFilters, _C3DNodeGetFiltersParamController, 
                       _C3DNodeGetFloor, _C3DNodeGetGeometry, _C3DNodeGetHasPhysicsBody, 
                       _C3DNodeGetHasPhysicsField, _C3DNodeGetHasPivot, _C3DNodeGetHittable, 
                       _C3DNodeGetID, _C3DNodeGetIndexOfChildNode, _C3DNodeGetLastFrameWorldMatrix, 
                       _C3DNodeGetLayerIndex, _C3DNodeGetLight, _C3DNodeGetLightmapInfo, 
                       _C3DNodeGetLocalBoundingBox, _C3DNodeGetLocalNoPivotMatrix, 
                       _C3DNodeGetMatrix, _C3DNodeGetMorpher, _C3DNodeGetMovability, 
                       _C3DNodeGetName, _C3DNodeGetNodeWithID, _C3DNodeGetNodeWithName, 
                       _C3DNodeGetOpacity, _C3DNodeGetParent, _C3DNodeGetParticleSystems, 
                       _C3DNodeGetPivotMatrix, _C3DNodeGetPivotPosition, _C3DNodeGetPosition, 
                       _C3DNodeGetPresentationMesh, _C3DNodeGetProjectionInfos, _C3DNodeGetProjectionMatrix, 
                       _C3DNodeGetQuaternion, _C3DNodeGetRenderableAttributeKey, 
                       _C3DNodeGetRendererDelegate, _C3DNodeGetRendererElementSpan, 
                       _C3DNodeGetRenderingOrder, _C3DNodeGetRootParent, _C3DNodeGetScale, 
                       _C3DNodeGetSkinner, _C3DNodeGetTransform, _C3DNodeGetTypeID, 
                       _C3DNodeGetWorldAlpha, _C3DNodeGetWorldMatrix, _C3DNodeGetWorldOrientation, 
                       _C3DNodeGetWorldPosition, _C3DNodeHasCamera, _C3DNodeHasChildNode, 
                       _C3DNodeHasChildren, _C3DNodeHasGeometryLOD, _C3DNodeHasInfiniteFloor, 
                       _C3DNodeHasLight, _C3DNodeInsertAudioPlayerAtIndex, _C3DNodeInsertChildNodeAfterChild, 
                       _C3DNodeInsertChildNodeAtIndex, _C3DNodeInsertParticleSystemAtIndex, 
                       _C3DNodeIsAlwaysRendered, _C3DNodeIsAncestor, _C3DNodeIsBoundingBoxFixed, 
                       _C3DNodeIsGizmo, _C3DNodeIsHidden, _C3DNodeIsHiddenOrIsHiddenByAncestor, 
                       _C3DNodeIsHiddenOrTransparent, _C3DNodeIsHiddenOrTransparentOrIsHiddenOrTransparentByAncestor, 
                       _C3DNodeIsJoint, _C3DNodeIsLighted, _C3DNodeIterateTree, _C3DNodeNeedsSpecialUpAxisConversion, 
                       _C3DNodePhysicsBodyIsAtRest, _C3DNodePhysicsBodyIsDynamic, 
                       _C3DNodeRemoveAllAudioPlayers, _C3DNodeRemoveAllParticleSystems, 
                       _C3DNodeRemoveAudioPlayer, _C3DNodeRemoveAudioPlayerAtIndex, 
                       _C3DNodeRemoveFromParentNode, _C3DNodeRemoveParticleSystem, 
                       _C3DNodeRemoveParticleSystemAtIndex, _C3DNodeReplaceAudioPlayerAtIndex, 
                       _C3DNodeReplaceParticleSystemAtIndex, _C3DNodeSetAxisAngle, 
                       _C3DNodeSetBoundingBox, _C3DNodeSetCamera, _C3DNodeSetCastsShadow, 
                       _C3DNodeSetCategoryBitMask, _C3DNodeSetConstraints, _C3DNodeSetEuler, 
                       _C3DNodeSetFilters, _C3DNodeSetGeometry, _C3DNodeSetHasPhysicsBody, 
                       _C3DNodeSetHasPhysicsField, _C3DNodeSetHidden, _C3DNodeSetHittable, 
                       _C3DNodeSetID, _C3DNodeSetIsGizmo, _C3DNodeSetIsJoint, _C3DNodeSetLayerIndex, 
                       _C3DNodeSetLight, _C3DNodeSetLightmapInfo, _C3DNodeSetMatrix, 
                       _C3DNodeSetMorpher, _C3DNodeSetMovability, _C3DNodeSetName, 
                       _C3DNodeSetOpacity, _C3DNodeSetPivotMatrix, _C3DNodeSetPivotPosition, 
                       _C3DNodeSetPosition, _C3DNodeSetQuaternion, _C3DNodeSetRendererDelegate, 
                       _C3DNodeSetRenderingOrder, _C3DNodeSetScale, _C3DNodeSetSkinner, 
                       _C3DNodeSetWorldBoundingBox, _C3DNodeShouldBePutInCullingSystem, 
                       _C3DNodeUpdateAudioPlayers, _C3DNotificationCenterAddObserver, 
                       _C3DNotificationCenterCreate, _C3DNotificationCenterGetSharedInstance, 
                       _C3DNotificationCenterGetTypeID, _C3DNotificationCenterPostNotification, 
                       _C3DNotificationCenterRemoveObserver, _C3DNotifyGeometryDidChange, 
                       _C3DNotifyMetalIsUsed, _C3DOffsetBuild, _C3DOffsetCreate, 
                       _C3DOffsetDestroy, _C3DOffsetInitSpokes, _C3DOffsetListCreate, 
                       _C3DOffsetListDestroy, _C3DOffsetListInsert, _C3DOrderedDictionaryApplyFunction, 
                       _C3DOrderedDictionaryCreate, _C3DOrderedDictionaryGetCount, 
                       _C3DOrderedDictionaryGetValue, _C3DOrderedDictionaryGetValueAtIndex, 
                       _C3DOrderedDictionaryRemoveAllValue, _C3DOrderedDictionaryRemoveValue, 
                       _C3DOrderedDictionarySetValue, _C3DParametricGeometryCopy, 
                       _C3DParametricGeometryCreate, _C3DParametricGeometryCreateCopy, 
                       _C3DParametricGeometryGeneratePoints, _C3DParametricGeometryGetBottomRadius, 
                       _C3DParametricGeometryGetCallbacks, _C3DParametricGeometryGetCapRadius, 
                       _C3DParametricGeometryGetCapSegmentCount, _C3DParametricGeometryGetChamferRadius, 
                       _C3DParametricGeometryGetChamferSegmentCount, _C3DParametricGeometryGetCornerRadius, 
                       _C3DParametricGeometryGetCornerSegmentCount, _C3DParametricGeometryGetFloatValue, 
                       _C3DParametricGeometryGetHeight, _C3DParametricGeometryGetHeightSegmentCount, 
                       _C3DParametricGeometryGetInnerRadius, _C3DParametricGeometryGetIntValue, 
                       _C3DParametricGeometryGetLength, _C3DParametricGeometryGetLengthSegmentCount, 
                       _C3DParametricGeometryGetOuterRadius, _C3DParametricGeometryGetPipeRadius, 
                       _C3DParametricGeometryGetPipeSegmentCount, _C3DParametricGeometryGetPointerValue, 
                       _C3DParametricGeometryGetPrimitiveType, _C3DParametricGeometryGetRadialSegmentCount, 
                       _C3DParametricGeometryGetRadialSpan, _C3DParametricGeometryGetRadius, 
                       _C3DParametricGeometryGetRingRadius, _C3DParametricGeometryGetRingSegmentCount, 
                       _C3DParametricGeometryGetSegmentCount, _C3DParametricGeometryGetTopRadius, 
                       _C3DParametricGeometryGetType, _C3DParametricGeometryGetTypeID, 
                       _C3DParametricGeometryGetWidth, _C3DParametricGeometryGetWidthSegmentCount, 
                       _C3DParametricGeometryInvalidate, _C3DParametricGeometryIsGeodesic, 
                       _C3DParametricGeometryIsHemispheric, _C3DParametricGeometryMaterialDidChange, 
                       _C3DParametricGeometrySetBottomRadius, _C3DParametricGeometrySetCapRadius, 
                       _C3DParametricGeometrySetCapSegmentCount, _C3DParametricGeometrySetChamferRadius, 
                       _C3DParametricGeometrySetChamferSegmentCount, _C3DParametricGeometrySetCornerRadius, 
                       _C3DParametricGeometrySetCornerSegmentCount, _C3DParametricGeometrySetFloatValue, 
                       _C3DParametricGeometrySetGeodesic, _C3DParametricGeometrySetHeight, 
                       _C3DParametricGeometrySetHeightSegmentCount, _C3DParametricGeometrySetHemispheric, 
                       _C3DParametricGeometrySetInnerRadius, _C3DParametricGeometrySetIntValue, 
                       _C3DParametricGeometrySetLength, _C3DParametricGeometrySetLengthSegmentCount, 
                       _C3DParametricGeometrySetOuterRadius, _C3DParametricGeometrySetPipeRadius, 
                       _C3DParametricGeometrySetPipeSegmentCount, _C3DParametricGeometrySetPointerValue, 
                       _C3DParametricGeometrySetPrimitiveType, _C3DParametricGeometrySetRadialSegmentCount, 
                       _C3DParametricGeometrySetRadialSpan, _C3DParametricGeometrySetRadius, 
                       _C3DParametricGeometrySetRingRadius, _C3DParametricGeometrySetRingSegmentCount, 
                       _C3DParametricGeometrySetSegmentCount, _C3DParametricGeometrySetTopRadius, 
                       _C3DParametricGeometrySetWidth, _C3DParametricGeometrySetWidthSegmentCount, 
                       _C3DParametricGeometryValidate, _C3DParseVersionNumber, _C3DParticleAnimatePropertyWithDistance, 
                       _C3DParticleAnimatePropertyWithLife, _C3DParticleAnimatePropertyWithOtherProperty, 
                       _C3DParticleContextSetup, _C3DParticleEmitBeam, _C3DParticleEmitStandard, 
                       _C3DParticleEmitTrail, _C3DParticleEulerIntegration_C, _C3DParticleEulerIntegration_NoMassVariation, 
                       _C3DParticleEulerIntegration_NoMassVariationNoDrag, _C3DParticleFloorCollider_C, 
                       _C3DParticleGenericCollider, _C3DParticleGenericColliderWithBlock, 
                       _C3DParticleInitBirthTime, _C3DParticleInitBounce, _C3DParticleInitCharge, 
                       _C3DParticleInitColor, _C3DParticleInitDummy, _C3DParticleInitFrame, 
                       _C3DParticleInitFrameRate, _C3DParticleInitFriction, _C3DParticleInitIntensity, 
                       _C3DParticleInitLife, _C3DParticleInitLifeWithVariation, _C3DParticleInitMass, 
                       _C3DParticleInitPositionAndVelocity, _C3DParticleInitRotationAxis, 
                       _C3DParticleInitSize, _C3DParticleManagerAddSystem, _C3DParticleManagerAreSoftParticleSystemsPresent, 
                       _C3DParticleManagerComputeTechniqueForSystem, _C3DParticleManagerCreate, 
                       _C3DParticleManagerCull, _C3DParticleManagerGetParticleSystemsForNode, 
                       _C3DParticleManagerGetScene, _C3DParticleManagerGetSharedPyramidMeshElement, 
                       _C3DParticleManagerGetSharedPyramidQuadsMeshElement, _C3DParticleManagerGetSharedQuadMeshSource, 
                       _C3DParticleManagerGetSharedQuadsMeshElement, _C3DParticleManagerGetTypeID, 
                       _C3DParticleManagerGetUpdateGroup, _C3DParticleManagerGetUpdateQueue, 
                       _C3DParticleManagerNeedRedraw, _C3DParticleManagerRegisterSystem, 
                       _C3DParticleManagerRemoveAllInstanceOfSystem, _C3DParticleManagerRemoveAllInstanceOfSystemsOnNode, 
                       _C3DParticleManagerRemoveAllSystems, _C3DParticleManagerRemoveSystem, 
                       _C3DParticleManagerResetAllInstanceOfSystem, _C3DParticleManagerUnregisterSystem, 
                       _C3DParticleManagerUpdate, _C3DParticleMeshCollider_C, _C3DParticleModifierCreate, 
                       _C3DParticleModifierGetBlock, _C3DParticleModifierGetProperties, 
                       _C3DParticleModifierGetStage, _C3DParticleModifierGetTypeID, 
                       _C3DParticleModifierSetBlock, _C3DParticleModifierSetProperties, 
                       _C3DParticleModifierSetStage, _C3DParticleModifier_Frame, 
                       _C3DParticleModifier_PhysicsField, _C3DParticlePhysicsCollisions, 
                       _C3DParticlePlaneCollider_C, _C3DParticleSpawnSubSystem, _C3DParticleSphereCollider_C, 
                       _C3DParticleSystemAddModifier, _C3DParticleSystemCreate, _C3DParticleSystemGetAcceleration, 
                       _C3DParticleSystemGetAffectedByGravity, _C3DParticleSystemGetAffectedByPhysicsFields, 
                       _C3DParticleSystemGetAndClearMeshDidChange, _C3DParticleSystemGetBirthDirection, 
                       _C3DParticleSystemGetBirthLocation, _C3DParticleSystemGetBirthRate, 
                       _C3DParticleSystemGetBirthRateVariation, _C3DParticleSystemGetBlackPassEnabled, 
                       _C3DParticleSystemGetBlendMode, _C3DParticleSystemGetColliderNodes, 
                       _C3DParticleSystemGetColorRamp, _C3DParticleSystemGetConstantDataPtrForSemantic, 
                       _C3DParticleSystemGetControllers, _C3DParticleSystemGetDampingFactor, 
                       _C3DParticleSystemGetEmissionCallback, _C3DParticleSystemGetEmissionDuration, 
                       _C3DParticleSystemGetEmissionDurationVariation, _C3DParticleSystemGetEmitterShape, 
                       _C3DParticleSystemGetEmittingDirection, _C3DParticleSystemGetEventBlock, 
                       _C3DParticleSystemGetFixedTimeStep, _C3DParticleSystemGetFresnelExponent, 
                       _C3DParticleSystemGetIdleDuration, _C3DParticleSystemGetIdleDurationVariation, 
                       _C3DParticleSystemGetImageSequenceAnimationMode, _C3DParticleSystemGetImageSequenceColumnCount, 
                       _C3DParticleSystemGetImageSequenceFrameRate, _C3DParticleSystemGetImageSequenceFrameRateVariation, 
                       _C3DParticleSystemGetImageSequenceInitialFrame, _C3DParticleSystemGetImageSequenceInitialFrameVariation, 
                       _C3DParticleSystemGetImageSequenceRowCount, _C3DParticleSystemGetIsLocal, 
                       _C3DParticleSystemGetLightingEnabled, _C3DParticleSystemGetLoops, 
                       _C3DParticleSystemGetMaterial, _C3DParticleSystemGetOrientationDirection, 
                       _C3DParticleSystemGetOrientationMode, _C3DParticleSystemGetParticleAngle, 
                       _C3DParticleSystemGetParticleAngleVariation, _C3DParticleSystemGetParticleAngularVelocity, 
                       _C3DParticleSystemGetParticleAngularVelocityVariation, _C3DParticleSystemGetParticleBounce, 
                       _C3DParticleSystemGetParticleBounceVariation, _C3DParticleSystemGetParticleCharge, 
                       _C3DParticleSystemGetParticleChargeVariation, _C3DParticleSystemGetParticleColor, 
                       _C3DParticleSystemGetParticleColorController, _C3DParticleSystemGetParticleColorVariation, 
                       _C3DParticleSystemGetParticleDiesOnCollision, _C3DParticleSystemGetParticleFriction, 
                       _C3DParticleSystemGetParticleFrictionVariation, _C3DParticleSystemGetParticleGeometries, 
                       _C3DParticleSystemGetParticleIntensity, _C3DParticleSystemGetParticleIntensityVariation, 
                       _C3DParticleSystemGetParticleLayout, _C3DParticleSystemGetParticleLifeSpan, 
                       _C3DParticleSystemGetParticleLifeSpanVariation, _C3DParticleSystemGetParticleMass, 
                       _C3DParticleSystemGetParticleMassVariation, _C3DParticleSystemGetParticleOpacityController, 
                       _C3DParticleSystemGetParticleSize, _C3DParticleSystemGetParticleSizeVariation, 
                       _C3DParticleSystemGetParticleTexture, _C3DParticleSystemGetParticleVelocity, 
                       _C3DParticleSystemGetParticleVelocityVariation, _C3DParticleSystemGetPhysicsCollisionsEnabled, 
                       _C3DParticleSystemGetPropertyControllers, _C3DParticleSystemGetPropertyIndexAndStride, 
                       _C3DParticleSystemGetRenderingMode, _C3DParticleSystemGetSeed, 
                       _C3DParticleSystemGetSimulateLifeCallback, _C3DParticleSystemGetSoftParticlesEnabled, 
                       _C3DParticleSystemGetSortingMode, _C3DParticleSystemGetSpeedFactor, 
                       _C3DParticleSystemGetSpreadingAngle, _C3DParticleSystemGetStretchFactor, 
                       _C3DParticleSystemGetSystemSpawnedOnCollision, _C3DParticleSystemGetSystemSpawnedOnDying, 
                       _C3DParticleSystemGetSystemSpawnedOnLiving, _C3DParticleSystemGetTypeID, 
                       _C3DParticleSystemGetWarmupDuration, _C3DParticleSystemHasCubeMapTexture, 
                       _C3DParticleSystemHasFogSupport, _C3DParticleSystemHasTextureAnimation, 
                       _C3DParticleSystemInstanceAddEmitter, _C3DParticleSystemInstanceCheckParticlesCount, 
                       _C3DParticleSystemInstanceCreate, _C3DParticleSystemInstanceDraw, 
                       _C3DParticleSystemInstanceFillUserData, _C3DParticleSystemInstanceGetNode, 
                       _C3DParticleSystemInstanceGetParticlesCount, _C3DParticleSystemInstanceGetRendererElementSpan, 
                       _C3DParticleSystemInstanceGetState, _C3DParticleSystemInstanceGetSystem, 
                       _C3DParticleSystemInstanceGetTypeID, _C3DParticleSystemInstanceGetWorldBoundingBox, 
                       _C3DParticleSystemInstancePushRendererElements, _C3DParticleSystemInstanceRemoveAllEmitters, 
                       _C3DParticleSystemInstanceRemoveEmittersWithNode, _C3DParticleSystemInstanceReset, 
                       _C3DParticleSystemInstanceSetNode, _C3DParticleSystemInstanceSimulateLife, 
                       _C3DParticleSystemInstanceSimulateLifeAndSpawnWhenDying, _C3DParticleSystemInstanceSimulateLifeWithBlock, 
                       _C3DParticleSystemInstanceStepEmitter, _C3DParticleSystemInstanceSync, 
                       _C3DParticleSystemInstanceUpdate, _C3DParticleSystemProcessAffectors, 
                       _C3DParticleSystemRemoveAllModifiers, _C3DParticleSystemRemoveModifier, 
                       _C3DParticleSystemSetAcceleration, _C3DParticleSystemSetAffectedByGravity, 
                       _C3DParticleSystemSetAffectedByPhysicsFields, _C3DParticleSystemSetBirthDirection, 
                       _C3DParticleSystemSetBirthLocation, _C3DParticleSystemSetBirthRate, 
                       _C3DParticleSystemSetBirthRateVariation, _C3DParticleSystemSetBlackPassEnabled, 
                       _C3DParticleSystemSetBlendMode, _C3DParticleSystemSetColliderNodes, 
                       _C3DParticleSystemSetDampingFactor, _C3DParticleSystemSetEmissionDuration, 
                       _C3DParticleSystemSetEmissionDurationVariation, _C3DParticleSystemSetEmitterShape, 
                       _C3DParticleSystemSetEmittingDirection, _C3DParticleSystemSetEventBlock, 
                       _C3DParticleSystemSetFixedTimeStep, _C3DParticleSystemSetFresnelExponent, 
                       _C3DParticleSystemSetIdleDuration, _C3DParticleSystemSetIdleDurationVariation, 
                       _C3DParticleSystemSetImageSequenceAnimationMode, _C3DParticleSystemSetImageSequenceColumnCount, 
                       _C3DParticleSystemSetImageSequenceFrameRate, _C3DParticleSystemSetImageSequenceFrameRateVariation, 
                       _C3DParticleSystemSetImageSequenceInitialFrame, _C3DParticleSystemSetImageSequenceInitialFrameVariation, 
                       _C3DParticleSystemSetImageSequenceRowCount, _C3DParticleSystemSetIsLocal, 
                       _C3DParticleSystemSetLightingEnabled, _C3DParticleSystemSetLoops, 
                       _C3DParticleSystemSetOrientationDirection, _C3DParticleSystemSetOrientationMode, 
                       _C3DParticleSystemSetParticleAngle, _C3DParticleSystemSetParticleAngleVariation, 
                       _C3DParticleSystemSetParticleAngularVelocity, _C3DParticleSystemSetParticleAngularVelocityVariation, 
                       _C3DParticleSystemSetParticleBounce, _C3DParticleSystemSetParticleBounceVariation, 
                       _C3DParticleSystemSetParticleCharge, _C3DParticleSystemSetParticleChargeVariation, 
                       _C3DParticleSystemSetParticleColor, _C3DParticleSystemSetParticleColorVariation, 
                       _C3DParticleSystemSetParticleDiesOnCollision, _C3DParticleSystemSetParticleFriction, 
                       _C3DParticleSystemSetParticleFrictionVariation, _C3DParticleSystemSetParticleGeometries, 
                       _C3DParticleSystemSetParticleIntensity, _C3DParticleSystemSetParticleIntensityVariation, 
                       _C3DParticleSystemSetParticleLifeSpan, _C3DParticleSystemSetParticleLifeSpanVariation, 
                       _C3DParticleSystemSetParticleMass, _C3DParticleSystemSetParticleMassVariation, 
                       _C3DParticleSystemSetParticleSize, _C3DParticleSystemSetParticleSizeVariation, 
                       _C3DParticleSystemSetParticleTexture, _C3DParticleSystemSetParticleVelocity, 
                       _C3DParticleSystemSetParticleVelocityVariation, _C3DParticleSystemSetPhysicsCollisionsEnabled, 
                       _C3DParticleSystemSetProperyControllers, _C3DParticleSystemSetRenderingMode, 
                       _C3DParticleSystemSetSeed, _C3DParticleSystemSetSoftParticlesEnabled, 
                       _C3DParticleSystemSetSortingMode, _C3DParticleSystemSetSpeedFactor, 
                       _C3DParticleSystemSetSpreadingAngle, _C3DParticleSystemSetStretchFactor, 
                       _C3DParticleSystemSetSystemSpawnedOnCollision, _C3DParticleSystemSetSystemSpawnedOnDying, 
                       _C3DParticleSystemSetSystemSpawnedOnLiving, _C3DParticleSystemSetWarmupDuration, 
                       _C3DPhysicsWorldGetAether, _C3DPhysicsWorldGetWorldGravity, 
                       _C3DPlaneGeneratePointsCallBack, _C3DPlaneGetBoundingBox, 
                       _C3DPlaneGetBoundingBoxForPlaneParameters, _C3DPlaneGetBoundingSphere, 
                       _C3DPlaneGetBoundingSphereForPlaneParameters, _C3DPlaneIsEqualToPlane, 
                       _C3DPlaneMake, _C3DPlaneMakeWithNormal, _C3DPlaneMakeWithPoints, 
                       _C3DPlaneMakeWithTriangle, _C3DPlaneMakeWithVectors, _C3DPlaneNeg, 
                       _C3DPlaneProjectVector3, _C3DPlaneTransform, _C3DPointFallsOnTriangleEdge, 
                       _C3DPointFallsOnTriangleEdgeAndLinks, _C3DPreferencesGetBool, 
                       _C3DPreferencesGetInteger, _C3DPreviousKeyFrameIndexForTime, 
                       _C3DProjectPoints, _C3DProjectionInfosGetAspectRatio, _C3DProjectionInfosGetFov, 
                       _C3DProjectionInfosGetMatrix, _C3DProjectionInfosGetOrtho, 
                       _C3DProjectionInfosGetOrthographicScale, _C3DProjectionInfosGetXFov, 
                       _C3DProjectionInfosGetYFov, _C3DProjectionInfosGetZFar, _C3DProjectionInfosGetZNear, 
                       _C3DProjectionInfosSetAspectRatio, _C3DProjectionInfosSetFov, 
                       _C3DProjectionInfosSetMatrix, _C3DProjectionInfosSetOrtho, 
                       _C3DProjectionInfosSetOrthographicScale, _C3DProjectionInfosSetXFov, 
                       _C3DProjectionInfosSetYFov, _C3DProjectionInfosSetZFar, _C3DProjectionInfosSetZNear, 
                       _C3DPtrFromMTLBuffer, _C3DPyramidGeneratePointsCallBack, _C3DPyramidGetBoundingBox, 
                       _C3DPyramidGetBoundingBoxForPyramidParameters, _C3DPyramidGetBoundingSphere, 
                       _C3DPyramidGetBoundingSphereForPyramidParameters, _C3DQuaternionAdd, 
                       _C3DQuaternionConjugate, _C3DQuaternionGetAxisAngle, _C3DQuaternionGetEuler, 
                       _C3DQuaternionGetRotationBetweenNormalizedVectors, _C3DQuaternionGetRotationBetweenQuaternions, 
                       _C3DQuaternionGetRotationBetweenVectors, _C3DQuaternionInvert, 
                       _C3DQuaternionIsApproximativelyEqualToQuaternion, _C3DQuaternionIsEqualToQuaternion, 
                       _C3DQuaternionIsIdentity, _C3DQuaternionMake, _C3DQuaternionMakeAxisAngle, 
                       _C3DQuaternionMakeEuler, _C3DQuaternionMakeFromMatrix4x4, 
                       _C3DQuaternionMakeIdentity, _C3DQuaternionMakeZero, _C3DQuaternionMult, 
                       _C3DQuaternionMultFloat, _C3DQuaternionNorm, _C3DQuaternionNormalize, 
                       _C3DQuaternionSlerp, _C3DQuaternionSub, _C3DRangeAfter, _C3DRasterizerStatesCreate, 
                       _C3DRasterizerStatesDefault, _C3DRasterizerStatesDescGetDefault, 
                       _C3DRasterizerStatesGetDesc, _C3DRasterizerStatesGetTypeID, 
                       _C3DRay3Copy, _C3DRay3Invert, _C3DRay3Make, _C3DRay3MakeWithSegment, 
                       _C3DRay3MultMatrix4x4, _C3DRay3Origin, _C3DRay3Vector, _C3DRectContainsRect, 
                       _C3DRectIsEqualToRect, _C3DRectMake, _C3DRectUnion, _C3DRectanglePackerCreateWithSize, 
                       _C3DRectanglePackerGetRectWithSize, _C3DRectanglePackerGetTexture, 
                       _C3DRectanglePackerGetTypeID, _C3DRectanglePackerIsEmpty, 
                       _C3DRectanglePackerReleaseRect, _C3DRectanglePackerSetPadding, 
                       _C3DRectanglePackerSetTexture, _C3DRemoveSceneRef, _C3DRenderBufferFormatFromString, 
                       _C3DRenderBufferFormatToString, _C3DRenderBufferGetBufferTypeForSlot, 
                       _C3DRenderBufferGetSlotForOutputBufferType, _C3DRenderTargetCreate, 
                       _C3DRenderTargetDescriptionDecode, _C3DRenderTargetDescriptionEncode, 
                       _C3DRenderTargetDescriptionMake, _C3DRenderTargetGetCIImage, 
                       _C3DRenderTargetGetDescription, _C3DRenderTargetGetMemoryUsage, 
                       _C3DRenderTargetGetNameIndex, _C3DRenderTargetGetRenderBuffer, 
                       _C3DRenderTargetGetTexture, _C3DRenderTargetGetTypeID, _C3DRenderTargetSetCIImage, 
                       _C3DRenderTargetSetDescription, _C3DRenderTargetSetNameIndex, 
                       _C3DRenderTargetSetRenderBuffer, _C3DRenderTargetSetTexture, 
                       _C3DRenderableAttributeKeyFromString, _C3DRendererContextAllocateBufferObject, 
                       _C3DRendererContextApplyTextureSampler, _C3DRendererContextBindCommonProfile, 
                       _C3DRendererContextBindEffectSlot, _C3DRendererContextBindFramebuffer, 
                       _C3DRendererContextBindMesh, _C3DRendererContextBindMeshElement, 
                       _C3DRendererContextBindProgramObject, _C3DRendererContextBindTexture, 
                       _C3DRendererContextBumpTimeStamp, _C3DRendererContextClear, 
                       _C3DRendererContextCreate, _C3DRendererContextCreateBufferObjectForMeshElement, 
                       _C3DRendererContextCreateBufferObjectForMeshSource, _C3DRendererContextCreateProgramObjectForProgram, 
                       _C3DRendererContextCreateRenderTargetWithDescription, _C3DRendererContextCreateTextureWithImage, 
                       _C3DRendererContextCreateTextureWithSize, _C3DRendererContextCreateWithGLContext, 
                       _C3DRendererContextCreateWithOptions, _C3DRendererContextDeleteBufferObject, 
                       _C3DRendererContextDeleteFramebuffer, _C3DRendererContextDeleteProgramObject, 
                       _C3DRendererContextDeleteRenderTarget, _C3DRendererContextDeleteTexture, 
                       _C3DRendererContextDestroyAllVertexArrayObjects, _C3DRendererContextExecuteOnContext, 
                       _C3DRendererContextExecuteSlotTextureProxy, _C3DRendererContextExtensionSupported, 
                       _C3DRendererContextFillProgramObjectLocations, _C3DRendererContextGetBoundFramebuffer, 
                       _C3DRendererContextGetCompilationErrors, _C3DRendererContextGetCompilationErrorsCollection, 
                       _C3DRendererContextGetContentScaleFactor, _C3DRendererContextGetEnableTexturePacking, 
                       _C3DRendererContextGetFeatures, _C3DRendererContextGetFrontFace, 
                       _C3DRendererContextGetGLContext, _C3DRendererContextGetProfile, 
                       _C3DRendererContextGetSampleCount, _C3DRendererContextGetShowsAuthoringEnvironment, 
                       _C3DRendererContextGetStats, _C3DRendererContextGetTextureUnitOffset, 
                       _C3DRendererContextGetTypeID, _C3DRendererContextGetViewport, 
                       _C3DRendererContextInferTextureSizeForImage, _C3DRendererContextInferTextureSizeForImageAndTextureSampler, 
                       _C3DRendererContextInferTextureTargetForImageTypeAndTextureSampler, 
                       _C3DRendererContextInferTextureTargetForTextureSampler, _C3DRendererContextInferTextureTypeForImageTypeAndTextureSampler, 
                       _C3DRendererContextInvalidateCache, _C3DRendererContextIsEnabled, 
                       _C3DRendererContextLogStats, _C3DRendererContextMapVolatileMesh, 
                       _C3DRendererContextMapVolatileMeshElement, _C3DRendererContextPopBlendStatesOverride, 
                       _C3DRendererContextPopGroupMarker, _C3DRendererContextPushBlendStatesOverride, 
                       _C3DRendererContextPushGroupMarker, _C3DRendererContextReleaseContext, 
                       _C3DRendererContextRenderResidentMeshElement, _C3DRendererContextResetToDefaultStates, 
                       _C3DRendererContextResetVolatileObjects, _C3DRendererContextResolveFramebuffer, 
                       _C3DRendererContextRestoreFramebuffer, _C3DRendererContextRetainContext, 
                       _C3DRendererContextSetBlendFunc, _C3DRendererContextSetBlendStates, 
                       _C3DRendererContextSetColor4UniformAtLocation, _C3DRendererContextSetCompilationErrorsCollection, 
                       _C3DRendererContextSetContentScaleFactor, _C3DRendererContextSetEnable, 
                       _C3DRendererContextSetEnableEnvMapping, _C3DRendererContextSetEnableReadsFromDepth, 
                       _C3DRendererContextSetEnableWriteToDepth, _C3DRendererContextSetFloatUniformAtLocation, 
                       _C3DRendererContextSetFrontFace, _C3DRendererContextSetGLContext, 
                       _C3DRendererContextSetInt2UniformAtLocation, _C3DRendererContextSetInt3UniformAtLocation, 
                       _C3DRendererContextSetInt4UniformAtLocation, _C3DRendererContextSetIntUniformAtLocation, 
                       _C3DRendererContextSetLight, _C3DRendererContextSetMatrix4x4UniformAtLocation, 
                       _C3DRendererContextSetMaxTextureSize, _C3DRendererContextSetPlatformSpecificImplementations_ES2, 
                       _C3DRendererContextSetPlatformSpecificImplementations_ES3, 
                       _C3DRendererContextSetRasterizerStates, _C3DRendererContextSetSampleCount, 
                       _C3DRendererContextSetShowsAuthoringEnvironment, _C3DRendererContextSetTypedBytesUniformAtLocation, 
                       _C3DRendererContextSetValueUniformAtLocation, _C3DRendererContextSetVector2UniformAtLocation, 
                       _C3DRendererContextSetVector3UniformAtLocation, _C3DRendererContextSetVector4UniformAtLocation, 
                       _C3DRendererContextSetViewport, _C3DRendererContextSetViewportForExternal2D, 
                       _C3DRendererContextSetupCommonPipeline, _C3DRendererContextSetupFramebuffer, 
                       _C3DRendererContextSetupResidentMeshSourceAtLocation, _C3DRendererContextTextureSamplerAllowsPacking, 
                       _C3DRendererContextTextureSamplerImpliesPow2TextureSize, _C3DRendererContextUnbindBufferObjects, 
                       _C3DRendererContextUnbindCommonProfile, _C3DRendererContextUnbindFramebuffer, 
                       _C3DRendererContextUnbindProgramObject, _C3DRendererContextUnbindTexture, 
                       _C3DRendererContextUnbindTextureUnits, _C3DRendererContextUnmapVolatileMesh, 
                       _C3DRendererContextUnmapVolatileMeshElement, _C3DRendererContextUpdateSubTextureWithImage, 
                       _C3DRendererContextUploadMeshElementToBufferObject, _C3DRendererContextUploadMeshSourceToBufferObject, 
                       _C3DRendererDelegateCreate, _C3DRendererDelegateFireWithNode, 
                       _C3DRendererDelegateGetTransparencyMode, _C3DRendererDelegateGetTypeID, 
                       _C3DRendererElementGetGeometry, _C3DRendererElementGetHashCodeForRenderPass, 
                       _C3DRendererElementGetMaterial, _C3DRendererElementGetMaterialForRenderPass, 
                       _C3DRendererElementGetMesh, _C3DRendererElementGetMeshElement, 
                       _C3DRendererElementGetNode, _C3DRendererElementGetProgramForRenderPass, 
                       _C3DRendererElementGetProgramHashCode, _C3DRendererElementGetRaterizerStates, 
                       _C3DRendererElementGetRenderComponentsForRenderPass, _C3DRendererElementIsDeferred, 
                       _C3DRendererElementIsDynamicBatchingReady, _C3DRendererElementIsHidden, 
                       _C3DRendererElementIsOpaque, _C3DRendererElementIsRendererDelegate, 
                       _C3DRendererElementProgramHashCodeCopyShaderModifiersForEntryPoint, 
                       _C3DRendererElementProgramHashCodeCreate, _C3DRendererElementProgramHashCodeDisableLinearRendering, 
                       _C3DRendererElementProgramHashCodeGetAmbientLightingEnabled, 
                       _C3DRendererElementProgramHashCodeGetCommonProfileHashCode, 
                       _C3DRendererElementProgramHashCodeGetCustomSlotCount, _C3DRendererElementProgramHashCodeGetCustomSlotName, 
                       _C3DRendererElementProgramHashCodeGetCustomSlotUVSet, _C3DRendererElementProgramHashCodeGetEffectPropertyHasTexture, 
                       _C3DRendererElementProgramHashCodeGetEffectPropertyHashCode, 
                       _C3DRendererElementProgramHashCodeGetEffectPropertyIsEnabled, 
                       _C3DRendererElementProgramHashCodeGetEffectPropertyTextureType, 
                       _C3DRendererElementProgramHashCodeGetHashCode, _C3DRendererElementProgramHashCodeGetLightHashCode, 
                       _C3DRendererElementProgramHashCodeGetLightingEnabled, _C3DRendererElementProgramHashCodeGetLightingModel, 
                       _C3DRendererElementProgramHashCodeGetLightsCount, _C3DRendererElementProgramHashCodeGetNodeHashCode, 
                       _C3DRendererElementProgramHashCodeGetProbesLightingOrder, 
                       _C3DRendererElementProgramHashCodeGetShaderModifiers, _C3DRendererElementProgramHashCodeGetTypeID, 
                       _C3DRendererElementProgramHashCodeGetUVSetInfo, _C3DRendererElementProgramHashCodeGetUVSetsCount, 
                       _C3DRendererElementProgramHashCodeGlobalAlphaIsOne, _C3DRendererElementProgramHashCodeHasConstantAlpha, 
                       _C3DRendererElementProgramHashCodeHasFog, _C3DRendererElementProgramHashCodeHasNormals, 
                       _C3DRendererElementProgramHashCodeHasSSAO, _C3DRendererElementProgramHashCodeHasShaderModifiers, 
                       _C3DRendererElementProgramHashCodeIsOpaque, _C3DRendererElementProgramHashCodeMatchLightHashCodesAndLightingContext, 
                       _C3DRendererElementProgramHashCodeMotionBlurEnabled, _C3DRendererElementProgramHashCodeNeedTangents, 
                       _C3DRendererElementProgramHashCodeOutlineEnabled, _C3DRendererElementProgramHashCodeUseDynamicBatching, 
                       _C3DRendererElementProgramHashCodeUsePointRendering, _C3DRendererElementStateBeginProcessing, 
                       _C3DRendererElementStateBindProgramRendererElement, _C3DRendererElementStateCreate, 
                       _C3DRendererElementStateDrawRendererElement, _C3DRendererElementStateEndProcessing, 
                       _C3DRendererElementStateGetActiveTextureUnit, _C3DRendererElementStateGetCurrentProgram, 
                       _C3DRendererElementStateGetCurrentProgramObject, _C3DRendererElementStateGetCurrentRendererElement, 
                       _C3DRendererElementStateGetForcedCullMode, _C3DRendererElementStateGetTypeID, 
                       _C3DRendererElementStateProcessRendererElement, _C3DRendererElementStateReset, 
                       _C3DRendererElementStateSetActiveTextureUnit, _C3DRendererElementStateSetForcedCullMode, 
                       _C3DRendererElementStoreAllocateSpanForNode, _C3DRendererElementStoreApplyForAllRendererElements, 
                       _C3DRendererElementStoreClear, _C3DRendererElementStoreCreate, 
                       _C3DRendererElementStoreDeallocateSpanForNode, _C3DRendererElementStoreGetElement, 
                       _C3DRendererElementStoreGetElementCount, _C3DRendererElementStoreGetElementHandle, 
                       _C3DRendererElementStoreGetElementInSpanAtIndex, _C3DRendererElementStoreGetSortKey, 
                       _C3DRendererElementStoreGetTypeID, _C3DRendererElementStoreLightsDidChange, 
                       _C3DRendererElementStoreMaterialDidChange, _C3DRendererElementStoreRegisterProgram, 
                       _C3DRendererElementStoreReleaseElementProgramHashCode, _C3DRendererElementStoreSortRendererElements, 
                       _C3DRendererElementStoreSyncRendererElement, _C3DResourceCacheAddResource, 
                       _C3DResourceCacheCopyResource, _C3DResourceCacheCreate, _C3DResourceCacheGetResource, 
                       _C3DResourceCacheGetSharedInstance, _C3DResourceCacheGetSource, 
                       _C3DResourceCacheGetTypeID, _C3DResourceCacheRemoveResource, 
                       _C3DResourceManagerCreate, _C3DResourceManagerFlush, _C3DResourceManagerGLSLGetProgramObjectForSourceHash, 
                       _C3DResourceManagerGetAllowsTexturePacking, _C3DResourceManagerGetPackers, 
                       _C3DResourceManagerGetTextureCacheSize, _C3DResourceManagerGetTypeID, 
                       _C3DResourceManagerGetUsedTextureCacheSize, _C3DResourceManagerIsImageResident, 
                       _C3DResourceManagerIsMeshElementResident, _C3DResourceManagerIsMeshSourceResident, 
                       _C3DResourceManagerIsProgramResident, _C3DResourceManagerLockVRAMResourceAccess, 
                       _C3DResourceManagerMakeImageProxyResident, _C3DResourceManagerMakeImageResident, 
                       _C3DResourceManagerMakeMeshElementResident, _C3DResourceManagerMakeMeshSourceResident, 
                       _C3DResourceManagerMakeProgramResident, _C3DResourceManagerRegistryGetResourceManagerForContext, 
                       _C3DResourceManagerRegistryReleaseContext, _C3DResourceManagerRegistryRetainContext, 
                       _C3DResourceManagerReleaseResidentVRAMResource, _C3DResourceManagerRemoveAllImages, 
                       _C3DResourceManagerRemoveAllMeshElements, _C3DResourceManagerRemoveAllMeshSources, 
                       _C3DResourceManagerRemoveAllPrograms, _C3DResourceManagerRemoveAllResources, 
                       _C3DResourceManagerRemoveAllTextureProxy, _C3DResourceManagerRemoveResidentImage, 
                       _C3DResourceManagerRemoveResidentMeshElement, _C3DResourceManagerRemoveResidentTextureProxy, 
                       _C3DResourceManagerSetAllowsTexturePacking, _C3DResourceManagerSetGLSLProgramObjectForSourceHash, 
                       _C3DResourceManagerSetTextureCacheSize, _C3DResourceManagerUnlockVRAMResourceAccess, 
                       _C3DRunsOnFuji, _C3DSceneAppendImagesAndTextureSamplers, _C3DSceneAssertTryLock, 
                       _C3DSceneBumpFrameStamp, _C3DSceneBumpStateStamp, _C3DSceneClearRegisteredCIFilterTechniques, 
                       _C3DSceneComputeFogParameters, _C3DSceneComputeViewToCubemapMatrix, 
                       _C3DSceneComputeWorldToCubemapMatrix, _C3DSceneCopyMeshes, 
                       _C3DSceneCreate, _C3DSceneCreateCopy, _C3DSceneCreateHitTestResultsAtPoint, 
                       _C3DSceneCreateHitTestResultsWithSegment, _C3DSceneGetAnimationManager, 
                       _C3DSceneGetAttribute, _C3DSceneGetAuthoringEnvironment2, 
                       _C3DSceneGetAuthoringEnvironment2ByCreatingIfNeeded, _C3DSceneGetBackgroundEffectSlot, 
                       _C3DSceneGetControllerManager, _C3DSceneGetCullingSystem, 
                       _C3DSceneGetDuration, _C3DSceneGetDynamicBatchingSystem, _C3DSceneGetEndTime, 
                       _C3DSceneGetEnginePipeline, _C3DSceneGetFogColor, _C3DSceneGetFogDensityExponent, 
                       _C3DSceneGetFogEndDistance, _C3DSceneGetFogStartDistance, 
                       _C3DSceneGetFrameRate, _C3DSceneGetFrameStamp, _C3DSceneGetLayerRootNode, 
                       _C3DSceneGetLightingEnvironmentEffectSlot, _C3DSceneGetLightingSystem, 
                       _C3DSceneGetModelValueStorage, _C3DSceneGetParticleManager, 
                       _C3DSceneGetPhysicsWorld, _C3DSceneGetPlaybackSpeed, _C3DSceneGetRegisteredCIFilterTechniqueForNode, 
                       _C3DSceneGetRegisteredNodeFilters, _C3DSceneGetRootNode, _C3DSceneGetStartTime, 
                       _C3DSceneGetStateStamp, _C3DSceneGetTransformTree, _C3DSceneGetTypeID, 
                       _C3DSceneGetUnit, _C3DSceneGetUpAxis, _C3DSceneHasAttribute, 
                       _C3DSceneIsPaused, _C3DSceneIsPausedForEditing, _C3DSceneIsUsingSSAO, 
                       _C3DSceneLock, _C3DSceneNeedsSSAO, _C3DSceneNodeWasAdded, 
                       _C3DSceneNodeWillBeRemoved, _C3DSceneNodeWillBeRemovedOrHidden, 
                       _C3DScenePostPipelineEvent, _C3DSceneRegisterCIFilterTechniqueForNode, 
                       _C3DSceneRegisterNodeConstrains, _C3DSceneRegisterNodeFilters, 
                       _C3DSceneRegisterNodeParticleSystem, _C3DSceneRegisterNodePhysicsBody, 
                       _C3DSceneRegisterNodePhysicsField, _C3DSceneSetAnimationManager, 
                       _C3DSceneSetAttribute, _C3DSceneSetEndTime, _C3DSceneSetFogColor, 
                       _C3DSceneSetFogDensityExponent, _C3DSceneSetFogEndDistance, 
                       _C3DSceneSetFogStartDistance, _C3DSceneSetFrameRate, _C3DSceneSetLayerRootNode, 
                       _C3DSceneSetPaused, _C3DSceneSetPausedForEditing, _C3DSceneSetPlaybackSpeed, 
                       _C3DSceneSetRootNode, _C3DSceneSetStartTime, _C3DSceneSetUnit, 
                       _C3DSceneSetUpAxis, _C3DSceneSourceCopyProperties, _C3DSceneSourceCopyPropertiesAtIndex, 
                       _C3DSceneSourceCreate, _C3DSceneSourceCreateError, _C3DSceneSourceCreateMalformedDocumentError, 
                       _C3DSceneSourceCreateSceneAtIndex, _C3DSceneSourceCreateWithData, 
                       _C3DSceneSourceCreateWithURL, _C3DSceneSourceGetData, _C3DSceneSourceGetFileFormat, 
                       _C3DSceneSourceGetLibrary, _C3DSceneSourceGetSceneCount, _C3DSceneSourceGetStatus, 
                       _C3DSceneSourceGetStatusAtIndex, _C3DSceneSourceGetTypeID, 
                       _C3DSceneSourceGetURL, _C3DSceneSourcePerformConsistencyCheck, 
                       _C3DSceneSourceSetData, _C3DSceneSourceSetLibrary, _C3DSceneSourceSetProperty, 
                       _C3DSceneUnlock, _C3DSceneUnregisterNodeParticleSystem, _C3DSceneUnregisterNodePhysicsBody, 
                       _C3DSceneUnregisterNodePhysicsField, _C3DSceneWillDie, _C3DSearchByID, 
                       _C3DSegment3ContainsPoint, _C3DSegment3Copy, _C3DSegment3Make, 
                       _C3DSegment3MultMatrix4x4, _C3DSegment3PointA, _C3DSegment3PointB, 
                       _C3DSegmentIntersectsSegment, _C3DSerializeFloatAsNumber, 
                       _C3DSerializeIndexAsNumber, _C3DSetCurrentTime, _C3DSetFileDecryptionCallbacks, 
                       _C3DSetIsRunningInEditor, _C3DSetShaderCacheLibraryURL, _C3DSetShaderCompilationDirectory, 
                       _C3DSetValue, _C3DSetupHaltonFilterKernel, _C3DSetupHaltonFilterKernelConic, 
                       _C3DSetupHammersleyFilterKernel, _C3DShaderAddStandardUniform, 
                       _C3DShaderFeedStandardUniformsToIndex, _C3DShaderGetStandardUniforms, 
                       _C3DShaderModifierBindUniforms, _C3DShaderModifierGetArguments, 
                       _C3DShaderModifierGetArgumentsDefaultValues, _C3DShaderModifierGetCode, 
                       _C3DShaderModifierGetDeclaration, _C3DShaderModifierGetDefines, 
                       _C3DShaderModifierGetEntryPoint, _C3DShaderModifierGetFlags, 
                       _C3DShaderModifierGetLanguage, _C3DShaderModifierGetStandardUniformsUsed, 
                       _C3DShaderModifierGetTexcoordMask, _C3DShaderModifierGetTypeID, 
                       _C3DShaderModifierGetUniformType, _C3DShaderModifierGetUniforms, 
                       _C3DShaderModifierGetVaryings, _C3DShaderModifierSetModel, 
                       _C3DShaderModifierUpdateHashCode, _C3DShaderModifiersCreate, 
                       _C3DShaderSourceParserContextCreate, _C3DShaderSourceParserContextDestroy, 
                       _C3DShaderSourceParserParseSource, _C3DShapeBoundariesSort, 
                       _C3DShapeBoundaryDestroy, _C3DShapeBoundaryGetOrientation, 
                       _C3DShapeBoundaryMakeWithCGPath, _C3DShapeBoundaryReverse, 
                       _C3DShapeBoundarySelfIntersects, _C3DShapeBuildConnectedComponents, 
                       _C3DShapeBuildDelaunayTriangulation, _C3DShapeConnectedComponentSkeletonizationCreateArcs, 
                       _C3DShapeConnectedComponentSkeletonize, _C3DShapeConnectedComponentTriangulate, 
                       _C3DShapeConnectedComponentTriangulatePseudopolygon, _C3DShapeCreate, 
                       _C3DShapeDrawControlPoints, _C3DShapeDrawDelaunayTriangulation, 
                       _C3DShapeDrawFlattenedOutline, _C3DShapeDrawNormals, _C3DShapeDrawOutline, 
                       _C3DShapeFinalize, _C3DShapeGeometryCopy, _C3DShapeGeometryCreate, 
                       _C3DShapeGeometryCreateCopy, _C3DShapeGeometryFinalize, _C3DShapeGeometryGetBoundingBox, 
                       _C3DShapeGeometryGetBoundingSphere, _C3DShapeGeometryGetC3DKitParameters, 
                       _C3DShapeGeometryGetChamferMode, _C3DShapeGeometryGetChamferRadius, 
                       _C3DShapeGeometryGetDiscretizedStraightLineMaxLength, _C3DShapeGeometryGetExtrusionDepth, 
                       _C3DShapeGeometryGetFlatness, _C3DShapeGeometryGetMeshForC3DKitNeeds, 
                       _C3DShapeGeometryGetObjCChamferProfile, _C3DShapeGeometryGetObjCPath, 
                       _C3DShapeGeometryGetPrimitiveType, _C3DShapeGeometryGetTypeID, 
                       _C3DShapeGeometryInit, _C3DShapeGeometryInvalidate, _C3DShapeGeometryMeshForBoundingBox, 
                       _C3DShapeGeometryResolveMeshForC3DKitNeeds, _C3DShapeGeometrySetC3DKitParameters, 
                       _C3DShapeGeometrySetChamferMode, _C3DShapeGeometrySetChamferRadius, 
                       _C3DShapeGeometrySetDiscretizedStraightLineMaxLength, _C3DShapeGeometrySetExtrusionDepth, 
                       _C3DShapeGeometrySetFlatness, _C3DShapeGeometrySetObjCChamferProfile, 
                       _C3DShapeGeometrySetObjCPath, _C3DShapeGeometrySetPrimitiveType, 
                       _C3DShapeGeometryValidate, _C3DShapeGetTypeID, _C3DShapeInit, 
                       _C3DShapeMeshCreationAppendShape, _C3DShapeMeshCreationCreateMesh, 
                       _C3DShapeMeshCreationInitMisc, _C3DShapeMeshCreationInitProfile, 
                       _C3DShapeResolveSelfIntersectingBoundaries, _C3DShapeTriangulationAddEdge, 
                       _C3DShapeTriangulationAddPoint, _C3DShapeTriangulationCheckConsistency, 
                       _C3DShapeTriangulationClean, _C3DShapeTriangulationGetNewTriangle, 
                       _C3DShapeTriangulationInit, _C3DShapeTriangulationListCreate, 
                       _C3DShapeTriangulationListDestroy, _C3DShapeTriangulationListInsert, 
                       _C3DShapeTriangulationResolveSwaps, _C3DShapeTriangulationStackCreate, 
                       _C3DShapeTriangulationStackDestroy, _C3DShapeTriangulationStackPop, 
                       _C3DShapeTriangulationStackPush, _C3DShapeTriangulationTriangleArea, 
                       _C3DShapeTriangulationTriangleContainingPoint, _C3DShapeTriangulationTriangleContainingVertex, 
                       _C3DShapeTriangulationTriangleCrossesSegment, _C3DShapeTriangulationTriangleMark, 
                       _C3DShapeTriangulationTriangleSplitInside, _C3DShapeTriangulationTriangleSplitOnEdge, 
                       _C3DShapeWriteToFile, _C3DSharedUnitWireframeCube, _C3DSharedUnitWireframeSphere, 
                       _C3DSimpleAnimationCopy, _C3DSimpleAnimationCopyByValue, _C3DSimpleAnimationCopyEndValue, 
                       _C3DSimpleAnimationCopyStartValue, _C3DSimpleAnimationCreate, 
                       _C3DSimpleAnimationEvaluate, _C3DSimpleAnimationGetTypeID, 
                       _C3DSimpleAnimationSetByValue, _C3DSimpleAnimationSetEndValue, 
                       _C3DSimpleAnimationSetStartValue, _C3DSimpleAnimationSetup, 
                       _C3DSizeForScreenSpaceSizeAndTransform, _C3DSizeOfBaseType, 
                       _C3DSizeOfBaseType_32, _C3DSkinCopyInverseBindMatricesPtr, 
                       _C3DSkinCreate, _C3DSkinCreateWith, _C3DSkinCreateWithSkinnableMesh, 
                       _C3DSkinFillJointWeightsBuffers, _C3DSkinGetDefaultShapeMatrix, 
                       _C3DSkinGetIndexedBoneIndices, _C3DSkinGetIndexedBoneWeights, 
                       _C3DSkinGetInfluencingMorpher, _C3DSkinGetInverseBindMatricesMultipliedByDefaultShapePtr, 
                       _C3DSkinGetInverseBindMatricesPtr, _C3DSkinGetJointsCount, 
                       _C3DSkinGetMaxInfluencesPerVertex, _C3DSkinGetTypeID, _C3DSkinGetVertexCount, 
                       _C3DSkinGetVertexWeightsPointers, _C3DSkinGetWeightsCount, 
                       _C3DSkinInitializeInstanceGeometry, _C3DSkinInverseBindMatricesHaveChanged, 
                       _C3DSkinPackWeightAndIndices, _C3DSkinSetDefaultShapeMatrix, 
                       _C3DSkinSetInfluencingMorpher, _C3DSkinSetMaxInfluencesPerVertex, 
                       _C3DSkinSetWeightsCount, _C3DSkinnerAddIndicesAndWeightsSourcesInSkinnedMesh, 
                       _C3DSkinnerAppendDebugBones, _C3DSkinnerAppendDebugBoundingBoxes, 
                       _C3DSkinnerCalculationModeUsesGPU, _C3DSkinnerCreate, _C3DSkinnerCreateCopy, 
                       _C3DSkinnerCreateWithSkin, _C3DSkinnerGetBoundingBox, _C3DSkinnerGetEffectiveCalculationMode, 
                       _C3DSkinnerGetJointBoundingBoxes, _C3DSkinnerGetJointMatrices, 
                       _C3DSkinnerGetJoints, _C3DSkinnerGetLastComputeFrame, _C3DSkinnerGetPreferredCalculationMode, 
                       _C3DSkinnerGetSkeleton, _C3DSkinnerGetSkin, _C3DSkinnerGetSkinnedMesh, 
                       _C3DSkinnerGetTypeID, _C3DSkinnerHasOnlyOneJoint, _C3DSkinnerInputGeometryDidChange, 
                       _C3DSkinnerSetJoints, _C3DSkinnerSetLastComputeFrame, _C3DSkinnerSetOwnerNode, 
                       _C3DSkinnerSetPreferredCalculationMode, _C3DSkinnerSetPrefersCPUCalculationMode, 
                       _C3DSkinnerSetSkeleton, _C3DSkinnerSetSkin, _C3DSkinnerSkinVertexOptimized, 
                       _C3DSkinnerTransposeSkeleton, _C3DSkinnerTransposeSkeletonUsingNodeNames, 
                       _C3DSkinnerUpdateCurrentMesh, _C3DSkinnerUpdateJointsAndBoundingBox, 
                       _C3DSourceAccessorCopyDataToAccessor, _C3DSourceAccessorCreate, 
                       _C3DSourceAccessorCreateCopy, _C3DSourceAccessorGetComponentsCountPerValue, 
                       _C3DSourceAccessorGetComponentsValueType, _C3DSourceAccessorGetCount, 
                       _C3DSourceAccessorGetData, _C3DSourceAccessorGetLength, _C3DSourceAccessorGetMutableValuePtrAtIndex, 
                       _C3DSourceAccessorGetOffset, _C3DSourceAccessorGetPlatformIndependentLength, 
                       _C3DSourceAccessorGetPlatformIndependentValueLength, _C3DSourceAccessorGetPlatformLength, 
                       _C3DSourceAccessorGetPlatformValueLength, _C3DSourceAccessorGetSource, 
                       _C3DSourceAccessorGetStride, _C3DSourceAccessorGetTypeID, 
                       _C3DSourceAccessorGetValueLength, _C3DSourceAccessorGetValuePtrAtIndex, 
                       _C3DSourceAccessorGetVectorType, _C3DSourceAccessorGetVolatileValuePtrAtIndex, 
                       _C3DSourceAccessorIsInterleaved, _C3DSourceAccessorSetCount, 
                       _C3DSourceAccessorSetOffset, _C3DSourceAccessorSetPadding, 
                       _C3DSourceAccessorSetSource, _C3DSourceAccessorSetStride, 
                       _C3DSourceAccessorsConvertToCurrentPlatform, _C3DSourceCodeHasPrefix, 
                       _C3DSourceCodesAreEquivalent, _C3DSphereContainsPoint, _C3DSphereContainsSegment3, 
                       _C3DSphereCreateMesh, _C3DSphereGeneratePointsCallBack, _C3DSphereGetBoundingBox, 
                       _C3DSphereGetBoundingBoxForSphereParameters, _C3DSphereGetBoundingSphere, 
                       _C3DSphereGetBoundingSphereForSphereParameters, _C3DSphereIsEqualToSphere, 
                       _C3DSphereMake, _C3DSphereMakeByMergingSpheres, _C3DSphereXFormMatrix4x4, 
                       _C3DSplineClear, _C3DSplineCopy, _C3DSplineCreate, _C3DSplineCreateCopy, 
                       _C3DSplineEvaluate, _C3DSplineGetControlVertexAtIndex, _C3DSplineGetControlVertexCount, 
                       _C3DSplineGetControlVertices, _C3DSplineGetIsClosed, _C3DSplineGetName, 
                       _C3DSplineGetSplineType, _C3DSplineGetTypeID, _C3DSplineSetControlVertexAtIndex, 
                       _C3DSplineSetControlVertexCount, _C3DSplineSetIsClosed, _C3DSplineSetName, 
                       _C3DSplineSetSplineType, _C3DSplitMeshIfNeeded, _C3DSplitMeshesIfNeededInNodeTree, 
                       _C3DSpokeCreate, _C3DSpokeDestroy, _C3DSpokeEqualToSpoke, 
                       _C3DSpokeExtremityAtTime, _C3DSpokeListCreate, _C3DSpokeListDestroy, 
                       _C3DSpokeListInsert, _C3DSpokeListListCreate, _C3DSpokeListListDestroy, 
                       _C3DSpokeListListInsert, _C3DStackCreate, _C3DStackGetCount, 
                       _C3DStackGetCurrentStackData, _C3DStackGetTypeID, _C3DStackGetValue, 
                       _C3DStackPop, _C3DStackPush, _C3DStackReset, _C3DStackSetValue, 
                       _C3DStandardShadersUseFunctionConstants, _C3DStaticArrayApplyFunction, 
                       _C3DStringCreateFromValue, _C3DStringCreateSubstringAfterPrefix, 
                       _C3DStringNamed, _C3DStringPreprocess, _C3DStringTokenizerAdvanceToNextToken, 
                       _C3DStringTokenizerGetCurrentTokenRange, _C3DStringTokenizerInit, 
                       _C3DStringTokenizerIsCurrentIsTokenWhiteSpaceOnly, _C3DStringTokenizerSetString, 
                       _C3DSubBaseType, _C3DSubpathsCounterFunc, _C3DSurfacePositionWithBlinnApproximationOnMeshAtLocation, 
                       _C3DTextFrameCreate, _C3DTextFrameGetCachedGlyph, _C3DTextFrameGetTypeID, 
                       _C3DTextFrameRebuildSharedGlyphs, _C3DTextGeometryComputeCTFrameIfNeeded, 
                       _C3DTextGeometryCopy, _C3DTextGeometryCreate, _C3DTextGeometryCreateCopy, 
                       _C3DTextGeometryFinalize, _C3DTextGeometryGetAlignmentMode, 
                       _C3DTextGeometryGetBoundingBox, _C3DTextGeometryGetBoundingSphere, 
                       _C3DTextGeometryGetC3DKitParameters, _C3DTextGeometryGetCTFrame, 
                       _C3DTextGeometryGetCustomContainerFrame, _C3DTextGeometryGetDefaultFont, 
                       _C3DTextGeometryGetFont, _C3DTextGeometryGetString, _C3DTextGeometryGetTruncationMode, 
                       _C3DTextGeometryGetTypeID, _C3DTextGeometryGetUseCustomContainerFrame, 
                       _C3DTextGeometryGetUseSeparateGeometryElements, _C3DTextGeometryGetWrapped, 
                       _C3DTextGeometryInit, _C3DTextGeometryInvalidate, _C3DTextGeometryMeshForBoundingBox, 
                       _C3DTextGeometrySetAlignmentMode, _C3DTextGeometrySetC3DKitParameters, 
                       _C3DTextGeometrySetCTFrame, _C3DTextGeometrySetCustomContainerFrame, 
                       _C3DTextGeometrySetFont, _C3DTextGeometrySetString, _C3DTextGeometrySetTruncationMode, 
                       _C3DTextGeometrySetUseCustomContainerFrame, _C3DTextGeometrySetUseSeparateGeometryElements, 
                       _C3DTextGeometrySetWrapped, _C3DTextGeometryValidate, _C3DTextLineBuildGlyphs, 
                       _C3DTextLineCreate, _C3DTextLineCreateWithTextFrame, _C3DTextLineGetAdvances, 
                       _C3DTextLineGetCachedGlyph, _C3DTextLineGetGlyphAtIndex, _C3DTextLineGetGlyphCount, 
                       _C3DTextLineGetTypeID, _C3DTextLineRebuildSharedGlyphs, _C3DTextureClearCache, 
                       _C3DTextureCreate, _C3DTextureGetFormat, _C3DTextureGetID, 
                       _C3DTextureGetIOSurface, _C3DTextureGetOffset, _C3DTextureGetPacker, 
                       _C3DTextureGetServerStorageSize, _C3DTextureGetSize, _C3DTextureGetTargetMode, 
                       _C3DTextureGetTypeID, _C3DTextureHasAlpha, _C3DTextureIsAttachment, 
                       _C3DTexturePackerAllocateTextureWithSize, _C3DTexturePackerCreateWithSize, 
                       _C3DTexturePackerGetRectanglePackers, _C3DTexturePackerGetTypeID, 
                       _C3DTexturePackerReleaseTexture, _C3DTextureProxyCreate, _C3DTextureProxyGetCallbacks, 
                       _C3DTextureProxyGetImageProxy, _C3DTextureProxyGetMetalTexture, 
                       _C3DTextureProxyGetOpenGLTexture, _C3DTextureProxyGetSource, 
                       _C3DTextureProxyGetTypeID, _C3DTextureProxyRenderInCurrentContext, 
                       _C3DTextureProxySetCallbacks, _C3DTextureProxySetImageProxy, 
                       _C3DTextureProxySetSource, _C3DTextureRawDataCopyAttributes, 
                       _C3DTextureRawDataIsEqual, _C3DTextureSamplerBilinearMipMapClampNoAnisotropy, 
                       _C3DTextureSamplerBilinearNoAnisotropy, _C3DTextureSamplerCreate, 
                       _C3DTextureSamplerCreateEx, _C3DTextureSamplerCreateWithOptions, 
                       _C3DTextureSamplerCreateWithPropertyList, _C3DTextureSamplerDepthCompare, 
                       _C3DTextureSamplerGetAnisotropy, _C3DTextureSamplerGetBorderColor, 
                       _C3DTextureSamplerGetComparisonFunc, _C3DTextureSamplerGetDefault, 
                       _C3DTextureSamplerGetMagFilter, _C3DTextureSamplerGetMinFilter, 
                       _C3DTextureSamplerGetMipFilter, _C3DTextureSamplerGetTextureType, 
                       _C3DTextureSamplerGetTypeID, _C3DTextureSamplerGetWrapModeP, 
                       _C3DTextureSamplerGetWrapModeS, _C3DTextureSamplerGetWrapModeT, 
                       _C3DTextureSamplerHash, _C3DTextureSamplerHashIsPCF, _C3DTextureSamplerNearest, 
                       _C3DTextureSamplerSetAnisotropy, _C3DTextureSamplerSetBorderColor, 
                       _C3DTextureSamplerSetComparisonFunc, _C3DTextureSamplerTrilinearClampNoAnisotropy, 
                       _C3DTextureSamplerTrilinearRepeatNoAnisotropy, _C3DTextureSamplerUseMipmaps, 
                       _C3DTextureSetFormat, _C3DTextureSetHasAlpha, _C3DTextureSetID, 
                       _C3DTextureSetOffset, _C3DTextureSetPacker, _C3DTextureSetServerStorageSize, 
                       _C3DTextureSetSize, _C3DTimingFunctionCreateWithControlPoints, 
                       _C3DTimingFunctionCreateWithName, _C3DTimingFunctionCreateWithPropertyList, 
                       _C3DTimingFunctionFromCAMediaTimingFunction, _C3DTimingFunctionGetControlPoints, 
                       _C3DTimingFunctionGetDefaultFunction, _C3DTimingFunctionGetTypeID, 
                       _C3DTimingFunctionLinear, _C3DTimingFunctionSolve, _C3DTimingFunctionSolveCurve, 
                       _C3DTorusCreateMesh, _C3DTorusGeneratePointsCallBack, _C3DTorusGetBoundingBox, 
                       _C3DTorusGetBoundingBoxForTorusParameters, _C3DTorusGetBoundingSphere, 
                       _C3DTorusGetBoundingSphereForTorusParameters, _C3DTransactionAddAnimationNode, 
                       _C3DTransactionAddCommandBlock, _C3DTransactionBegin, _C3DTransactionCheckUncommitted, 
                       _C3DTransactionCommit, _C3DTransactionFlush, _C3DTransactionGetAtomicTime, 
                       _C3DTransactionGetCompletionBlock, _C3DTransactionGetCurrent, 
                       _C3DTransactionGetCurrentDepth, _C3DTransactionGetCurrentlyCommittedDuration, 
                       _C3DTransactionGetCurrentlyCommittedTimingFunction, _C3DTransactionGetDisableActions, 
                       _C3DTransactionGetDuration, _C3DTransactionGetTimingFunction, 
                       _C3DTransactionGetTypeID, _C3DTransactionGetValue, _C3DTransactionIsImmediate, 
                       _C3DTransactionLock, _C3DTransactionSetCompletionBlock, _C3DTransactionSetDisableActions, 
                       _C3DTransactionSetDuration, _C3DTransactionSetImmediateMode, 
                       _C3DTransactionSetTimingFunction, _C3DTransactionSetValue, 
                       _C3DTransactionUnlock, _C3DTransactionUpdateModelValueForKeyIfNeeded, 
                       _C3DTransactionUpdateModelValueForKeypathIfNeeded, _C3DTransformBoundingBox, 
                       _C3DTransformBoundingSphere, _C3DTransformCopyModelInfoAtSplittedPath, 
                       _C3DTransformGetAxisAngle, _C3DTransformGetEuler, _C3DTransformGetMatrix, 
                       _C3DTransformGetMatrixPtr, _C3DTransformGetPosition, _C3DTransformGetQuaternion, 
                       _C3DTransformGetRotationType, _C3DTransformGetScale, _C3DTransformGetValue, 
                       _C3DTransformInit, _C3DTransformIsIdentity, _C3DTransformSetAxisAngle, 
                       _C3DTransformSetEuler, _C3DTransformSetIdentity, _C3DTransformSetMatrix, 
                       _C3DTransformSetPosition, _C3DTransformSetQuaternion, _C3DTransformSetScale, 
                       _C3DTransformSetValue, _C3DTransformTreeAddNode, _C3DTransformTreeCreate, 
                       _C3DTransformTreeGetFirstChild, _C3DTransformTreeGetLastFrameWorldTransformPtr, 
                       _C3DTransformTreeGetLocalTransform, _C3DTransformTreeGetModificationCount, 
                       _C3DTransformTreeGetNextSibling, _C3DTransformTreeGetParent, 
                       _C3DTransformTreeGetWorldTransform, _C3DTransformTreeGetWorldTransformPtr, 
                       _C3DTransformTreeLogStats, _C3DTransformTreeNextFrame, _C3DTransformTreeRemoveNode, 
                       _C3DTransformTreeResetStats, _C3DTransformTreeUpdateCullingHandle, 
                       _C3DTransformTreeUpdateNodeTransform, _C3DTransformTreeUpdateWorldTransforms, 
                       _C3DTransformsArrayAppendTransforms, _C3DTransformsArrayCreate, 
                       _C3DTransformsArrayEval, _C3DTransformsArrayGetStackIsAnimatable, 
                       _C3DTransformsArrayGetTransformWithIdentifier, _C3DTransformsArrayGetTypeID, 
                       _C3DTransformsArraySetStackIsAnimatable, _C3DTriangle3BarycentricCoordinates, 
                       _C3DTriangle3BoundingBox, _C3DTriangle3BoundingSphere, _C3DTriangle3ContainsPoint, 
                       _C3DTriangle3Copy, _C3DTriangle3Make, _C3DTriangle3MakeWithPoints, 
                       _C3DTriangle3Normal, _C3DTriangle3PointAtIndex, _C3DTriangulationInfoCreateFromMeshElement, 
                       _C3DTriangulationInfoGetEdgesAtFaceIndex, _C3DTriangulationInfoGetFacesAtEdgeIndex, 
                       _C3DTriangulationInfoGetFacesAtVertexIndex, _C3DTriangulationInfoGetTypeID, 
                       _C3DTriangulationInfoMergeEdgesWithEquivalenceMapTable, _C3DTubeCreateMesh, 
                       _C3DTubeGeneratePointsCallBack, _C3DTubeGetBoundingBox, _C3DTubeGetBoundingBoxForTubeParameters, 
                       _C3DTubeGetBoundingSphere, _C3DTubeGetBoundingSphereForTubeParameters, 
                       _C3DTypeConformsToProtocol, _C3DTypeCreateInstance_, _C3DTypeRegister, 
                       _C3DURLCreateCopyAppendingPathComponent, _C3DUnProjectPoints, 
                       _C3DVMAlignmentSize, _C3DVMAllocate, _C3DVMDeallocate, _C3DVRAMResourceGetID, 
                       _C3DVRAMResourceGetSource, _C3DVRAMResourceIsAttachment, _C3DVRAMResourceLock, 
                       _C3DVRAMResourceLockCount, _C3DVRAMResourceSetID, _C3DVRAMResourceUnlock, 
                       _C3DValueAdd, _C3DValueConcat, _C3DValueCopyTo, _C3DValueCreate, 
                       _C3DValueCreateCopy, _C3DValueCreateDefault, _C3DValueCreateWithSemantic, 
                       _C3DValueFromColor, _C3DValueGetBytes, _C3DValueGetCount, 
                       _C3DValueGetLength, _C3DValueGetType, _C3DValueGetTypeID, 
                       _C3DValueGetTypeSemantic, _C3DValueInitFrom, _C3DValueIsEqualToValue, 
                       _C3DValueMultFloat, _C3DValueSetValueFromString, _C3DValueSub, 
                       _C3DVector2IsEqualToVector2, _C3DVector3Angle, _C3DVector3CopyPropertyList, 
                       _C3DVector3EulerRotate, _C3DVector3EulerRotateWithCenter, 
                       _C3DVector3InitWithPropertyList, _C3DVector3MakeEulerFromAxisAngle, 
                       _C3DVector3MidVector, _C3DVector3MultMatrix4x4, _C3DVector3NormalizedDot, 
                       _C3DVector3Print, _C3DVector3Rescale, _C3DVector3Rotate, _C3DVector3RotateAndScale, 
                       _C3DVector3ScaleWithCenter, _C3DVector4CopyPropertyList, _C3DVector4GetAxisAngleRotationBetweenVectors, 
                       _C3DVector4InitWithPropertyList, _C3DVector4MakeAxisAngleFromEuler, 
                       _C3DVector4MultMatrix4x4, _C3DVector4Print, _C3DVectorGenerateOrthogonalBasis, 
                       _C3DVectorIsValid, _C3DVertexAttribFromParameterSemantic, 
                       _C3DVertexNotSharedByTriangles, _C3DWarmupGeometryVRAMResourcesForEngineContext, 
                       _C3DWarmupMaterialVRAMResourcesForEngineContext, _C3DWarmupNodeTreeVRAMResourcesForEngineContext, 
                       _C3DWarmupSceneVRAMResourcesForEngineContext, _C3DWasLinkedBefore10_10, 
                       _C3DWasLinkedBefore10_11_and_iOS9, _C3DWasLinkedBeforeMajorOSYear2016, 
                       _C3DWasLinkedBeforeMajorOSYear2017, _C3DWideGamutIsUsed, _C3DWireframeAddInstance, 
                       _C3DWireframeDrawInstances, _C3DWireframeRendererCreate, _C3DWireframeRendererDestroy, 
                       _C3DWriteKernelToURL, _C3DWriteStringToFile, _C3DtexturePackerGetPackerSize, 
                       _CAAnimationToC3DAnimation, _CABasicAnimationToC3DAnimation, 
                       _CAKeyframeAnimationToC3DAnimation, _CAMediaTimingFunctionFromC3DTimingFunction, 
                       _CATransformToC3DMatrix4x4, _CFArrayCompareWithStaticArray, 
                       _CFEqualRanges, _CFStringScanCGFloats, _CFStringScanFloats, 
                       _CFStringToStringDictionaryHash, _CFStringUpdateHash, _CFTypeIsC3DEntity, 
                       _CFTypeIsC3DGeometry, _CGColorCreateExtendedLinearSRGBWithC3DColor, 
                       _CGColorCreateExtendedSRGBWithC3DColor, _CGPathElementCountApplierFunc, 
                       _CGPathToKeyframesApplierFunc, _CGPointHasFloatComponents, 
                       _CheckDefineUsageInModifiers, _CreateMeshElementsVBODictionaryIfNeeded, 
                       _CreateRadialSpanSide, _CreateSphereNormalsAndTexCoordForPoints, 
                       _MDLLightProbeConvertToSH2, _MDLLightProbeConvertToSH3, _ModifyProjectionMatrix, 
                       _SCNActionApply, _SCNActionDidFinish, _SCNActionHasKey, _SCNActionIsCustom, 
                       _SCNActionIsPaused, _SCNActionReleaseCachedState, _SCNActionRestoreState, 
                       _SCNActionSaveStateIfNeeded, _SCNActionTimeJump, _SCNActionWasAddedToTargetAtTime, 
                       _SCNActionWasPausedAtTime, _SCNActionWasRemovedFromTargetAtTime, 
                       _SCNActionWillResumeAtTime, _SCNActionsReset, _SCNAddAnimation, 
                       _SCNAnimationCommitOnCompletion, _SCNAnimationGetTargetedBaseType, 
                       _SCNAnimationTargetGetValue, _SCNAnimationTargetSetValue, 
                       _SCNAudioPlayerWasRemovedFromNode, _SCNBaseTypeOfObjCProperty, 
                       _SCNCacheImageProxyWithSource, _SCNCachedImageProxyFromSource, 
                       _SCNCameraControllerBackwardKeyCodeKeys, _SCNCameraControllerForwardKeyCodeKeys, 
                       _SCNCameraControllerLeftKeyCodeKeys, _SCNCameraControllerRightKeyCodeKeys, 
                       _SCNComponentIsFloat, _SCNConsistencyElementIDErrorKey, _SCNConsistencyElementTypeErrorKey, 
                       _SCNConsistencyLineNumberErrorKey, _SCNContainsUIKitViews, 
                       _SCNConvertC3DAnimationDictionaryFunc, _SCNConvertEngineStatsToPerformanceData, 
                       _SCNCopyCGImageFromImage, _SCNCopyValueFromObjCProperty, _SCNCopyValueFromObjCValue, 
                       _SCNCreateAnimationChannelWithObjectAndPath, _SCNCreateGLESContext, 
                       _SCNDataProviderAnimationTime, _SCNDataProviderCAWaitTime, 
                       _SCNDataProviderCPUIdleTime, _SCNDataProviderClientUpdateTime, 
                       _SCNDataProviderConstraintsTime, _SCNDataProviderFPS, _SCNDataProviderFrameTime, 
                       _SCNDataProviderGPUDeviceUtil, _SCNDataProviderGPURendererUtil, 
                       _SCNDataProviderGPUTilerUtil, _SCNDataProviderParticleTime, 
                       _SCNDataProviderPhysicsTime, _SCNDataProviderPrimitivesProcessed, 
                       _SCNDataProviderRenderTime, _SCNDecodeAnimations, _SCNDecodeBezierPathForKey, 
                       _SCNDecodeC3DAnimationForKey, _SCNDecodeEntity, _SCNDecodeImageArray, 
                       _SCNDecodeImageContents, _SCNDecodeSCNMatrix4, _SCNDecodeUnsecureColor, 
                       _SCNDecodeUnsecureObjectForKey, _SCNDecodeVector3, _SCNDecodeVector4, 
                       _SCNDefaultValueWithBaseType, _SCNDetailedErrorsKey, _SCNEnclosingURLForSceneDecoder, 
                       _SCNEncodeAnimations, _SCNEncodeBezierPathForKey, _SCNEncodeC3DAnimationForKey, 
                       _SCNEncodeC3DImage, _SCNEncodeEntity, _SCNEncodeImageArray, 
                       _SCNEncodeImageContents, _SCNEncodeNamedObject, _SCNEncodeSCNMatrix4, 
                       _SCNEncodeUnsecureObjectForKey, _SCNEncodeVector3, _SCNEncodeVector4, 
                       _SCNErrorDomain, _SCNExportJavaScriptModule, _SCNExportMovieFrameRate, 
                       _SCNExportMovieMirrored, _SCNExportMovieSupersamplingFactor, 
                       _SCNExportPointOfViewAttribute, _SCNExportSceneIdentifier, 
                       _SCNFindImageNamedInAppBundle, _SCNFreeViewCameraName, _SCNGeometrySemanticForMeshSourceSemantic, 
                       _SCNGeometrySourceSemanticBoneIndices, _SCNGeometrySourceSemanticBoneWeights, 
                       _SCNGeometrySourceSemanticColor, _SCNGeometrySourceSemanticEdgeCrease, 
                       _SCNGeometrySourceSemanticNormal, _SCNGeometrySourceSemanticTangent, 
                       _SCNGeometrySourceSemanticTexcoord, _SCNGeometrySourceSemanticToMeshSourceSemantic, 
                       _SCNGeometrySourceSemanticVertex, _SCNGeometrySourceSemanticVertexCrease, 
                       _SCNGetExternalTextureSource, _SCNGetFileTimestampAtURL, _SCNGetPerformanceStatistics, 
                       _SCNGetPerformanceStatisticsEnabled, _SCNGetResourceBundle, 
                       _SCNGetSceneKitBundle, _SCNHasSpecialResourceBundle, _SCNHitTestAllLayers, 
                       _SCNHitTestBackFaceCullingKey, _SCNHitTestBoundingBoxOnlyKey, 
                       _SCNHitTestCategoryBitMaskKey, _SCNHitTestClipToZRangeKey, 
                       _SCNHitTestFirstFoundOnlyKey, _SCNHitTestIgnoreChildNodesKey, 
                       _SCNHitTestIgnoreHiddenNodesKey, _SCNHitTestIgnoreTransparentNodesKey, 
                       _SCNHitTestOptionBackFaceCulling, _SCNHitTestOptionBoundingBoxOnly, 
                       _SCNHitTestOptionCategoryBitMask, _SCNHitTestOptionClipToZRange, 
                       _SCNHitTestOptionFirstFoundOnly, _SCNHitTestOptionIgnoreChildNodes, 
                       _SCNHitTestOptionIgnoreHiddenNodes, _SCNHitTestOptionRootNode, 
                       _SCNHitTestOptionSearchMode, _SCNHitTestOptionSortResults, 
                       _SCNHitTestRootNodeKey, _SCNHitTestSearchModeKey, _SCNHitTestSortResultsKey, 
                       _SCNIOSurfaceCreateWithSize, _SCNInitializeJavascriptContext, 
                       _SCNInterpolationModeFromCACalculationMode, _SCNIntersectionOfIndexSets, 
                       _SCNKitAlloc, _SCNKitGetImplicitAnimationTimingFunction, _SCNKitSplitKVCPath, 
                       _SCNLayerTreeDidChange, _SCNLightAttenuationConstant, _SCNLightAttenuationEndKey, 
                       _SCNLightAttenuationFalloffExponentKey, _SCNLightAttenuationLinear, 
                       _SCNLightAttenuationQuadratic, _SCNLightAttenuationStartKey, 
                       _SCNLightConstantAttenuationKey, _SCNLightFallOffAngleKey, 
                       _SCNLightFallOffExponentKey, _SCNLightGoboProjectShadows, 
                       _SCNLightHotspotBeamKey, _SCNLightLinearAttenuationKey, _SCNLightQuadraticAttenuationKey, 
                       _SCNLightShadowFarClippingKey, _SCNLightShadowNearClippingKey, 
                       _SCNLightSpotFalloffExponentKey, _SCNLightSpotInnerAngleKey, 
                       _SCNLightSpotOuterAngleKey, _SCNLightTypeAmbient, _SCNLightTypeDirectional, 
                       _SCNLightTypeFromC3DLightType, _SCNLightTypeIES, _SCNLightTypeOmni, 
                       _SCNLightTypeProbe, _SCNLightTypeSky, _SCNLightTypeSpot, _SCNLightTypeToC3DLightType, 
                       _SCNLightingModelBlinn, _SCNLightingModelConstant, _SCNLightingModelLambert, 
                       _SCNLightingModelNone, _SCNLightingModelPhong, _SCNLightingModelPhysicallyBased, 
                       _SCNMatrix4EqualToMatrix4, _SCNMatrix4FromGLKMatrix4, _SCNMatrix4Identity, 
                       _SCNMatrix4Invert, _SCNMatrix4IsIdentity, _SCNMatrix4MakeRotation, 
                       _SCNMatrix4Mult, _SCNMatrix4Rotate, _SCNMatrix4Scale, _SCNMatrix4ToGLKMatrix4, 
                       _SCNModelTransform, _SCNModelViewProjectionTransform, _SCNModelViewTransform, 
                       _SCNMultisamplingDefaultSampleCount, _SCNNSValueFromTypedBytes, 
                       _SCNNodeCameraIsViewingTheObject, _SCNNodeGetBoundingSphere, 
                       _SCNNodeRemoveDeadParticleInstance, _SCNNodesToMDLAsset, _SCNNormalTransform, 
                       _SCNObjCEncodedTypeToC3DBaseType, _SCNObject_resolveInstanceMethod, 
                       _SCNParticlePropertyAngle, _SCNParticlePropertyAngularVelocity, 
                       _SCNParticlePropertyBounce, _SCNParticlePropertyCharge, _SCNParticlePropertyColor, 
                       _SCNParticlePropertyContactNormal, _SCNParticlePropertyContactPoint, 
                       _SCNParticlePropertyFrame, _SCNParticlePropertyFrameRate, 
                       _SCNParticlePropertyFriction, _SCNParticlePropertyLife, _SCNParticlePropertyOpacity, 
                       _SCNParticlePropertyPosition, _SCNParticlePropertyRotationAxis, 
                       _SCNParticlePropertySize, _SCNParticlePropertyVelocity, _SCNPathRelativeToAppBundle, 
                       _SCNPhysicsShapeCollisionMarginKey, _SCNPhysicsShapeKeepAsCompoundKey, 
                       _SCNPhysicsShapeOptionCollisionMargin, _SCNPhysicsShapeOptionKeepAsCompound, 
                       _SCNPhysicsShapeOptionScale, _SCNPhysicsShapeOptionType, _SCNPhysicsShapeScaleKey, 
                       _SCNPhysicsShapeTypeBoundingBox, _SCNPhysicsShapeTypeConcavePolyhedron, 
                       _SCNPhysicsShapeTypeConvexDecomposition, _SCNPhysicsShapeTypeConvexHull, 
                       _SCNPhysicsShapeTypeKey, _SCNPhysicsTestBackfaceCullingKey, 
                       _SCNPhysicsTestCollisionBitMaskKey, _SCNPhysicsTestOptionBackfaceCulling, 
                       _SCNPhysicsTestOptionCollisionBitMask, _SCNPhysicsTestOptionSearchMode, 
                       _SCNPhysicsTestSearchModeAll, _SCNPhysicsTestSearchModeAny, 
                       _SCNPhysicsTestSearchModeClosest, _SCNPhysicsTestSearchModeKey, 
                       _SCNPlistClasses, _SCNPreferLowPowerDeviceKey, _SCNPreferredDeviceKey, 
                       _SCNPreferredRenderingAPIKey, _SCNPrimitiveCapSegments, _SCNPrimitiveChamferSegments, 
                       _SCNPrimitiveGenerateMappingCoordinates, _SCNPrimitiveGenerateSmoothedEdges, 
                       _SCNPrimitiveGeosphereBase, _SCNPrimitiveHeight, _SCNPrimitiveHeightSegments, 
                       _SCNPrimitiveIcosahedron, _SCNPrimitiveLength, _SCNPrimitiveLengthSegments, 
                       _SCNPrimitivePipeSegments, _SCNPrimitiveRingSegments, _SCNPrimitiveRotationSegments, 
                       _SCNPrimitiveSphereSegments, _SCNPrimitiveSphereType, _SCNPrimitiveTypeGeosphere, 
                       _SCNPrimitiveTypeHemisphere, _SCNPrimitiveTypeHexahedron, 
                       _SCNPrimitiveTypeOctahedron, _SCNPrimitiveTypeSphere, _SCNPrimitiveTypeTetrahedron, 
                       _SCNPrimitiveVertexTransformation, _SCNPrimitiveWidth, _SCNPrimitiveWidthSegments, 
                       _SCNProgramDidChangeNotification, _SCNProgramMappingChannelKey, 
                       _SCNProjectionTransform, _SCNPushPerformanceStatistics, _SCNReloadDeniedImagePathFromScene, 
                       _SCNRemoveAllAnimations, _SCNRemoveAnimation, _SCNRenderPassName, 
                       _SCNRendererOffscreenSampleCount, _SCNResolveImageContents, 
                       _SCNRetrieveAllImagePathFromScene, _SCNSKSceneDidChange, _SCNSceneAttributeEndTime, 
                       _SCNSceneAttributeFrameRate, _SCNSceneAttributeStartTime, 
                       _SCNSceneAttributeUpAxis, _SCNSceneEndTimeAttributeKey, _SCNSceneExportCompressGeometryElements, 
                       _SCNSceneExportDestinationURL, _SCNSceneExportEmbedImages, 
                       _SCNSceneExportEmbedReferences, _SCNSceneExportPresentationTree, 
                       _SCNSceneExportUTIKey, _SCNSceneFrameRateAttributeKey, _SCNSceneKitVersionNumber, 
                       _SCNSceneSourceAdjustInvalidCameraClippingPlanesKey, _SCNSceneSourceAnimationImportPolicyDoNotPlay, 
                       _SCNSceneSourceAnimationImportPolicyKey, _SCNSceneSourceAnimationImportPolicyPlay, 
                       _SCNSceneSourceAnimationImportPolicyPlayRepeatedly, _SCNSceneSourceAnimationImportPolicyPlayUsingSceneTimeBase, 
                       _SCNSceneSourceAnimationLoadingModeKey, _SCNSceneSourceAnimationLoadingModePlayUsingSceneTime, 
                       _SCNSceneSourceAssetAuthorKey, _SCNSceneSourceAssetAuthoringToolKey, 
                       _SCNSceneSourceAssetContributorsKey, _SCNSceneSourceAssetCreatedDateKey, 
                       _SCNSceneSourceAssetDirectoryURLsKey, _SCNSceneSourceAssetModifiedDateKey, 
                       _SCNSceneSourceAssetUnitKey, _SCNSceneSourceAssetUnitMeterKey, 
                       _SCNSceneSourceAssetUnitNameKey, _SCNSceneSourceAssetUpAxisKey, 
                       _SCNSceneSourceCheckConsistencyKey, _SCNSceneSourceConvertToUnitKey, 
                       _SCNSceneSourceConvertToYUpIfNeededKey, _SCNSceneSourceConvertToYUpKey, 
                       _SCNSceneSourceConvertUnitsToMetersKey, _SCNSceneSourceCreateCameraIfAbsentKey, 
                       _SCNSceneSourceCreateLightIfAbsentKey, _SCNSceneSourceCreateNormalsIfAbsentKey, 
                       _SCNSceneSourceDocumentDestinationURL, _SCNSceneSourceFlattenSceneKey, 
                       _SCNSceneSourceForceMorphNormals, _SCNSceneSourceFormat, _SCNSceneSourceFormatC3D, 
                       _SCNSceneSourceFormatCOLLADA, _SCNSceneSourceFormatHint, _SCNSceneSourceFormatOBJ, 
                       _SCNSceneSourceFormatSCN, _SCNSceneSourceGeometryMemoryUsageKey, 
                       _SCNSceneSourceInputSource, _SCNSceneSourceLoadingOptionAnimationImportPolicy, 
                       _SCNSceneSourceLoadingOptionAssetDirectoryURLs, _SCNSceneSourceLoadingOptionCheckConsistency, 
                       _SCNSceneSourceLoadingOptionConvertToYUp, _SCNSceneSourceLoadingOptionConvertUnitsToMeters, 
                       _SCNSceneSourceLoadingOptionCreateNormalsIfAbsent, _SCNSceneSourceLoadingOptionFlattenScene, 
                       _SCNSceneSourceLoadingOptionOverrideAssetURLs, _SCNSceneSourceLoadingOptionPreserveOriginalTopology, 
                       _SCNSceneSourceLoadingOptionStrictConformance, _SCNSceneSourceLoadingOptionUseSafeMode, 
                       _SCNSceneSourceOverrideAssetURLsKey, _SCNSceneSourceSceneIndexKey, 
                       _SCNSceneSourceShouldCacheKey, _SCNSceneSourceSkipConsistencyCheckKey, 
                       _SCNSceneSourceStrictConformanceKey, _SCNSceneSourceTextureMemoryUsageKey, 
                       _SCNSceneSourceUseModelIOToLoadDAEFiles, _SCNSceneSourceUseSafeModeKey, 
                       _SCNSceneSourceVerboseMode, _SCNSceneStartTimeAttributeKey, 
                       _SCNSceneUpAxisAttributeKey, _SCNSceneWriteToURLShouldKeepReferencesToFilesOption, 
                       _SCNSceneWriteToURLShouldZipOption, _SCNSetExternalTextureSource, 
                       _SCNSetPerformanceStatisticsEnabled, _SCNSetResourceBundle, 
                       _SCNShaderModifierEntryPointFragment, _SCNShaderModifierEntryPointGeometry, 
                       _SCNShaderModifierEntryPointLightingModel, _SCNShaderModifierEntryPointSurface, 
                       _SCNSourceURLForCurrentlyUnarchivedScene, _SCNStringGetCString, 
                       _SCNTextureContentWithGLInfo, _SCNTextureOffsetXKey, _SCNTextureOffsetYKey, 
                       _SCNTransformSemanticModel, _SCNTransformSemanticModelView, 
                       _SCNTransformSemanticModelViewProjection, _SCNTransformSemanticNormal, 
                       _SCNTransformSemanticProjection, _SCNTransformSemanticView, 
                       _SCNUIKitSourceNotifyViewWasRemoved, _SCNUIKitSourceSetCurrentViewEvent, 
                       _SCNUITreeDidChange, _SCNUselessFunctionToReferenceProtocols, 
                       _SCNVector3EqualToVector3, _SCNVector3HasFloatComponents, 
                       _SCNVector3Zero, _SCNVector4EqualToVector4, _SCNVector4Zero, 
                       _SCNViewOptionPreferLowPowerDevice, _SCNViewOptionPreferredDevice, 
                       _SCNViewOptionPreferredRenderingAPI, _SCNViewTransform, _SCNWriteValueToTypedBytes, 
                       _SCN_MDLVertexAttributeAOCoord, _SCN_MDLVertexAttributeBitangent, 
                       _SCN_MDLVertexAttributeLightmapCoord, _SCN_MDLVertexAttributeUnknown, 
                       _SceneKitVersionNumber, _SceneKitVersionString, __AppendC3DMatrix4x4, 
                       __C3DAbort, __C3DAnimationCFFinalize, __C3DAnimationCFInit, 
                       __C3DAnimationCopyPropertyList, __C3DAnimationFinalizeDeserialization, 
                       __C3DAnimationInitWithPropertyList, __C3DAnimationManagerAddAnimationNode, 
                       __C3DAnimationManagerGetAnimationPerKeyDictionaryForObject, 
                       __C3DAnimationManagerRemoveAnimationForKey, __C3DAnimationManagerUpdateConstantCount, 
                       __C3DAnimationReadsDestinationBuffer, __C3DCameraInvalidatePasses, 
                       __C3DConstraintCFFinalize, __C3DConstraintCFInit, __C3DCreateDataWithContentsOfURL, 
                       __C3DCreateFlattenedGeometryFromNodeHierarchy, __C3DEffectCommonProfileReleaseSlot, 
                       __C3DEffectCommonProfileSetDefaultValues, __C3DEffectCommonProfileSetTextureForTextureProxy, 
                       __C3DEffectSlotGetCommonProfile, __C3DEntityCFFinalize, __C3DEntityCFInit, 
                       __C3DEntityCleanupActionForKey, __C3DEntityRestoreAnimationsActionsAndBindindsIntoScene, 
                       __C3DEntitySetAttribute, __C3DEntitySetAttributes, __C3DFXContextReset, 
                       __C3DFXGLSLProgramGetMaxAttributeIndex, __C3DFXGLSLProgramGetMaxUniformIndex, 
                       __C3DFXGLSLProgramSetAttributesDictionary, __C3DFXGLSLProgramSetUniformDictionary, 
                       __C3DFXSamplerCFFinalize, __C3DFXShaderCFFinalize, __C3DFXTechniqueCFFinalize, 
                       __C3DFXViewportDidChange, __C3DGenericSourceCFCopyDebugDescription, 
                       __C3DGenericSourceCFFinalize, __C3DGenericSourceCFInit, __C3DGenericSourceCopyPropertyList, 
                       __C3DGenericSourceFillLibraryForSerialization, __C3DGenericSourceFinalizeDeserialization, 
                       __C3DGenericSourceInitWithPropertyList, __C3DGeometryCFCopyDebugDescription, 
                       __C3DGeometryCFFinalize, __C3DGeometryCFInit, __C3DGeometryCopyInstanceVariables, 
                       __C3DGeometryCopyPropertyList, __C3DGeometryEnumerateSubEntities, 
                       __C3DGeometryFillLibraryForSerialization, __C3DGeometryFinalizeDeserialization, 
                       __C3DGeometryInitWithPropertyList, __C3DGeometryShadingDidUpdate, 
                       __C3DHitTestComputeHitSegment, __C3DImageCreateTextureRawData, 
                       __C3DImageDeleteTextureRawDataIfNeeded, __C3DImageResize, 
                       __C3DImageSetSizeAndAlphaMask, __C3DKeyframeControllerCopyGenericSource, 
                       __C3DKeyframeControllerCreate, __C3DKeyframeControllerRemoveUselessKeys, 
                       __C3DLODCopyInstanceVariables, __C3DLODEnumerateSubEntities, 
                       __C3DLibraryGetSharedInstance, __C3DListTransferObjects, __C3DMaterialFinalizeDeserialization, 
                       __C3DMaterialGetCommonProfile, __C3DMaterialShadingDidUpdate, 
                       __C3DMeshFinalizeDeserialization, __C3DMeshSourceCreate, __C3DMeshSourceSetupNonInitializedComponents, 
                       __C3DModelPathResolverRegistryGetType, __C3DModelPathResolverRegistryResolvePath, 
                       __C3DModelPathResolverRegistryResolvePathWithClassName, __C3DModelPathResolverRegistryResolveSubPath, 
                       __C3DMorpherPrepareMorphedMesh, __C3DNodeComputeWorldRotationMatrix, 
                       __C3DNodeDump, __C3DNodeIterateTreePostOrder, __C3DNodeIterateTreePreOrder, 
                       __C3DParametricGeometryCopyPropertyList, __C3DParametricGeometryFillLibraryForSerialization, 
                       __C3DParametricGeometryFinalizeDeserialization, __C3DParametricGeometryFloatPtr, 
                       __C3DParametricGeometryInitWithPropertyList, __C3DParametricGeometryIntPtr, 
                       __C3DParticleRender_Quads, __C3DParticleRender_Quads_Batch, 
                       __C3DParticleRender_Strip, __C3DParticleSystemInstanceAllocateParticlesData, 
                       __C3DParticleSystemInstanceDeallocateParticlesData, __C3DParticleSystemInstanceSimulateLifeInPlaceNaive, 
                       __C3DParticleSystemInstanceSort, __C3DProjectPoints, __C3DRegisterKeyframeControllerProxyProtocol, 
                       __C3DRendererContextBindFramebuffer, __C3DRendererContextBindTextureGL, 
                       __C3DRendererContextComputeInternalSize, __C3DRendererContextComputeRenderBufferInternalSize, 
                       __C3DRendererContextDeleteRenderBuffer, __C3DRendererContextMeshWillDie, 
                       __C3DRendererContextUnbindTextureGL, __C3DRendererElementFinalize, 
                       __C3DRendererElementInitialize, __C3DRendererElementSync, 
                       __C3DResourceManagerGetCountOfResidentTexture, __C3DResourceManagerGetResidentTextureAtIndex, 
                       __C3DResourceManagerInstallRendererContext, __C3DResourceManagerMakeProgramObjectResident, 
                       __C3DResourceManagerMakeTextureResident, __C3DResourceManagerUninstallRendererContext, 
                       __C3DSceneSetRootNode, __C3DShapeGeometryCopyPropertyList, 
                       __C3DShapeGeometryFillLibraryForSerialization, __C3DShapeGeometryFinalizeDeserialization, 
                       __C3DShapeGeometryInitWithPropertyList, __C3DSkinGetBaseGeometryForOldC3DFiles, 
                       __C3DSkinnerUpdateBoundingBox, __C3DSourceAccessorCopyPropertyList, 
                       __C3DSourceAccessorCreate, __C3DSourceAccessorFillLibraryForSerialization, 
                       __C3DSourceAccessorFinalizeDeserialization, __C3DSourceAccessorInitWithPropertyList, 
                       __C3DTextGeometryCopyPropertyList, __C3DTextGeometryFillLibraryForSerialization, 
                       __C3DTextGeometryFinalizeDeserialization, __C3DTextGeometryInitWithPropertyList, 
                       __C3DTextureSamplerFinalizeDeserialization, __C3DTimingFunctionCopyPropertyList, 
                       __C3DTimingFunctionFinalizeDeserialization, __C3DTimingFunctionInitWithPropertyList, 
                       __C3DUpdateMeshElementsBBoxIfNeeded, __SCNArrayFromCGPath, 
                       __SCNCGPathCreateFromArray, __SCNDecodeImageContents, __SCNGetPerformanceStatisticsForPid, 
                       __SCNGetPerformanceStatisticsFromPerformanceData, __SCNSetLinearRenderingEnabled, 
                       __SCNSetShouldPostShadableCompilationNotifications, __SCNShadableDidCompileNotificationName, 
                       __SCNShadableIssuesKey, __SCNStartCollectingPerformanceStatisticsForPid, 
                       __SCNStopCollectingPerformanceStatisticsForPid, ___AddLocalResult, 
                       ___AddModifierForStage, ___AddToFreeList, ___AddWorldResult, 
                       ___AdjustMaxSpan, ___AllocMaterialMeshElementCouple, ___AllocateNewSpan, 
                       ___AllocateNewSpanInPage, ___AllocatePage, ___AppendModifierDefines, 
                       ___ApplyType, ___BindValueForSymbol, ___BuildRenderableSourceChannelsAndSemanticInfos, 
                       ___BuildSemanticInfosForData, ___C3DBaseTypeDescArray, ___C3DBaseTypeStringDescriptionArray, 
                       ___C3DComputeLocalBoundingBox, ___C3DConstraintManagerAppendAuthoringInfo, 
                       ___C3DKeyframeControllerCopyGenericSource, ___C3DMeshAddRenderableSourceWithPositionChannel, 
                       ___C3DMeshCopyByAddingOriginalSourcesWithPositionChannel, 
                       ___C3DMeshGetSourcesCountForSemantic, ___C3DMeshHasSourceWithSemanticAtIndex, 
                       ___C3DMeshRemoveSourceWithSemanticAtIndex, ___C3DMeshSetRenderableSourceWithInputSetAndPositionChannel, 
                       ___C3DMorphGetState, ___C3DMorphSetMorpher, ___C3DNodeGeometryDidChange, 
                       ___C3DParticleManagerRemoveActiveSystemInstance, ___C3DParticleSystemAffectorsDidChange, 
                       ___C3DParticleSystemControllersDidChange, ___C3DParticleSystemDidChange, 
                       ___C3DParticleSystemInstanceApplyControllers, ___C3DParticleSystemInstanceComputeDepth, 
                       ___C3DParticleSystemInstanceComputeDistance, ___C3DParticleSystemInstanceStep, 
                       ___C3DParticleSystemMaterialDidChange, ___C3DParticleSystemMeshDidChange, 
                       ___C3DParticleSystemUpdateInternal, ___C3DRendererContextGetDefaultInvalidTexture, 
                       ___C3DRendererElementStoreDeallocateSpan, ___C3DShaderModifierCreate, 
                       ___C3DShapeConnectedComponentSkeletonize, ___C3DSizeOfBaseTypeArray, 
                       ___C3DSkinnerPrepareSkinnedMesh, ___CFStringReadNextIdentifier, 
                       ___CheckBoneIndicesAndWeightsForElement, ___CheckCurrentRenderContext, 
                       ___ClassifyParticlesForBoundingBox, ___Collating, ___CollideWithFace, 
                       ___CollideWithFaceFastTri, ___CommitLightsUpdate, ___CompareMaterials, 
                       ___ComputeAmbientLighting, ___ComputeCustomSlotsUsage, ___ComputeInfiniteLightSet, 
                       ___ComputeLightSets, ___CopyHashCodeFromShaderSources, ___CopyParticles, 
                       ___CreateIndexedJointsWeightsSourcesIfNeeded, ___CreateNewPage, 
                       ___Cull, ___CullInside, ___DeallocateSpan, ___DeclareSymbolToIndexMapping, 
                       ___DeleteHashCodeCache, ___DestroyControllers, ___DestroyMaterialMeshElementCouple, 
                       ___DestroyParticles, ___DestructPage, ___DisplayFreeList, 
                       ___DisplayNormals, ___DropOriginalTopology, ___EnqueueNotification, 
                       ___FillSetWithUVSet, ___GetDefineForPropertyAndSuffix, ___GetModifierFlag, 
                       ___GetSemanticFromSerializedSemanticString, ___HandleGeometryDidChangeNotifications, 
                       ___HandleMaterialDidChangeNotifications, ___HandleNodeNotification, 
                       ___HandleNodeWillDieNotification, ___InitStateVarsIfNeeded, 
                       ___InstallFXContext, ___InstallGLContext, ___LightsHaveChanged, 
                       ___MakeNormalMatrix, ___MeshWillDieNotification, ___ProcessHierarchy, 
                       ___ProcessNode, ___ProcessSkinnedGeometryForJointIndex, ___ProcessSkinner, 
                       ___ProcessTriangleBatch, ___ProcessTriangleIndicesBatch, ___ProcessTriangleRange_Generic, 
                       ___ProcessTriangleRange_Ind16VrtFloat3CullBack, ___ProcessTriangleRange_Mask, 
                       ___ProcessTriangleRange_Mask_Ind16VrtFloat3CullBack, ___PushRenderableElementsToVisible, 
                       ___RemoveFromFreeList, ___ReorderRendererElements, ___ReserveAndBindVolatileVBO, 
                       ___SCNAnimationTargetCopyValueToAddress, ___SetupIntegration, 
                       ___SpawnSubSystem, ___StoreTexture, ___TrackRenderNodeDependencies, 
                       ___TrackRendererElementsDependencies, ___TransformHasChanged, 
                       ___UnbindValueForSymbol, ___UntrackNodeDependencies, ___UntrackRendererElementsDependencies, 
                       ___UpdateCullingHandle, ___UpdateHashCodeWithTextureType, 
                       ___UpdateMatrixUniforms, ___UpdateShaderModifiersInProgramHashCode, 
                       ___UpdateSourcesMutability, ___UpdateUniqueProgramHashCode, 
                       ___addJSValueExtension, ___addPrimaryData, ___addSecondaryData, 
                       ___addSemanticData, ___allocateLastWeightsIfNeeded, ___appendDictionary, 
                       ___appendShadowTechnique, ___appendString, ___appendVerticesAndIndices, 
                       ___baseMesh, ___boundingBoxesAreDirty, ___clearJointsTransformHandles, 
                       ___clearUnrelevantProperties, ___computeAttenuationType, ___computeSplitPositions, 
                       ___computeSubBox, ___createCone, ___createGLKTextureLoader, 
                       ___createSubdividedGeometryCopy, ___createTriangle, ___cubicPolynomialRoot, 
                       ___debugDraw, ___debugDrawQuery, ___decreasingFloatData, ___dispatchShaderModifiers, 
                       ___drawLightingStats, ___dumpStats, ___fastTriangleContainsPointBarycentric, 
                       ___freeData, ___getShaderModifierOwner, ___hashCodeFromDesc, 
                       ___hashFromStencilAction, ___increasingFloatData, ___inferRenderingAPIFromGLContext, 
                       ___invalidatePassIfNeeded, ___isValuesGoingToOrLeavingZero, 
                       ___lightOptimizedType, ___logEnginePipelineState, ___lookupTetrahedron, 
                       ___makePlane, ___nextPowerOf2, ___notifyMaterialDidChangeAndInvalidatePasses, 
                       ___pack_float3_x4, ___printMeshElementsOfMesh, ___processTrianglesBatch, 
                       ___propertyIsUsedByController, ___quadraticPolynomialRoot, 
                       ___rayIntersectSphere, ___replaceString, ___replaceStringAndGetReplacementStringLineRange, 
                       ___reserveData, ___scaleAndBiasMatrix, ___segmentPlane, ___semanticHasVariation, 
                       ___semanticIsUsedByController, ___semanticIsUsedByEventBlock, 
                       ___setAxisAngleValue, ___setEulerAngleValue, ___setPositionValue, 
                       ___setQuaternionValue, ___setScaleValue, ___setTransformValue, 
                       ___setValueError, ___skinCPULike_PN, ___skin_PNx4, ___skin_PNx4_1bone, 
                       ___skin_PNx4_1influence, ___skin_generic, ___skin_generic_1bone, 
                       ___skin_generic_pn, ___spreadingVariationf, ___stringForProperty, 
                       ___triangleBarycentricCoords, ___triangleContainsPoint, ___triangleContainsPointBarycentric, 
                       ___unpack_float3_x4, ___updateJointsTransformHandles, ___updateRequireLighting, 
                       ___updateWorldData, __addJSValueExtension, __closestSnapToAlignItem, 
                       __compareRendererElements, __computeJointMatrices, __computeNeighbourIndexes, 
                       __computeOuterCells, __computeShadowMatrix, __computeSystemCenter, 
                       __computeTetrahedronMatrices, __drawMemoryChart, __fillInfoFromFormat, 
                       __fxSemanticFromSemanticString, __loadASTC, __loadKTX, __loadPVRTC, 
                       __mayBeASTC, __mayBeKTX, __mayBePVRTC, __mm_realloc, __releaseGlobalRenderTargets, 
                       __resizeProbesData, __scnPerformanceData, __setContentToContentFromIndexSet, 
                       __snapPositionToAlign, __sortSnapData, _angle, _backFaceStencilAction, 
                       _boundaryAppendElement, _boundaryArea, _boundaryAtBoundaryEnd, 
                       _boundaryContainsBoundary, _boundaryInitWithElement, _check_float_4, 
                       _check_floats, _copyPathExtension, _enableStencilSeparateAction, 
                       _faceAppendElement, _faceAppendElements, _faceInitWithElement, 
                       _g_OperatorLeftAssociative, _g_OperatorPrecedence, _generateCapsuleProfile, 
                       _generateChamferCornerProfile, _generateChamferQuadProfile, 
                       _generateConeProfile, _generateCylinderProfile, _generatePyramidProfile, 
                       _generateRingProfile, _generateSphereProfile, _generateTorusProfile, 
                       _graddotp2, _graddotp3, _gradrot2, _gradrot3, _intersectionForSpokeAndEdge, 
                       _intersectionForSpokeAndSpoke, _kAppleEngine, _kC3DActionsKey, 
                       _kC3DAmbient, _kC3DAmbientColor, _kC3DAmbientImageID, _kC3DAmbientOcclusion, 
                       _kC3DAmbientOcclusionUVSet, _kC3DAmbientTextureSampler, _kC3DAmbientUVSet, 
                       _kC3DAnimationGroupTypeKey, _kC3DAnimationsKey, _kC3DAudioPlayersKey, 
                       _kC3DAvoidsOverlighting, _kC3DBindingsKey, _kC3DBoxCallBacks, 
                       _kC3DBytesPerIndex, _kC3DCIFilterParamControllerCallbacks, 
                       _kC3DCameraKey, _kC3DCameraTypeKey, _kC3DCapsuleCallBacks, 
                       _kC3DColorKey, _kC3DConeCallBacks, _kC3DConstraintsKey, _kC3DCullBackValue, 
                       _kC3DCullFrontValue, _kC3DCullMode, _kC3DCylinderCallBacks, 
                       _kC3DDiffuse, _kC3DDiffuseColor, _kC3DDiffuseImageID, _kC3DDiffuseTextureSampler, 
                       _kC3DDiffuseUVSet, _kC3DDisplacement, _kC3DDisplacementUVSet, 
                       _kC3DDoubleSided, _kC3DEffectCommonProfile, _kC3DEffectTypeKey, 
                       _kC3DEmission, _kC3DEmissionColor, _kC3DEmissionImageID, _kC3DEmissionTextureSampler, 
                       _kC3DEmissionUVSet, _kC3DEmptyArrayCallbacks, _kC3DEmptyKeyCallbacks, 
                       _kC3DEmptyValueCallbacks, _kC3DEngineRenderingOptionEnableSMAA, 
                       _kC3DEngineRenderingOptionEnableSSAO, _kC3DEngineRenderingOptionEnvironmentMapping, 
                       _kC3DEngineRenderingOptionForceLighting, _kC3DEngineRenderingOptionFrustumCulling, 
                       _kC3DEngineRenderingOptionMipmaping, _kC3DEngineRenderingOptionProbeRendering, 
                       _kC3DEngineRenderingOptionSSAOParameters, _kC3DEngineRenderingOptionUseDefaultCamera, 
                       _kC3DFXRenderPassCombineFactor, _kC3DFXRenderPassCombineRGBParameter, 
                       _kC3DFXRenderPassDoClear, _kC3DFXRenderPassFloorNode, _kC3DFXRenderPassFrameHistoryCount, 
                       _kC3DFXRenderPassIgnoreInfiniteFloor, _kC3DFXRenderPassMaterialKey, 
                       _kC3DFXRenderPassMirrorNode, _kC3DFXRenderPassNoJittering, 
                       _kC3DFXRenderPassOperationAdd, _kC3DFXRenderPassOperationMult, 
                       _kC3DFXRenderPassOperationMultFloat, _kC3DFXRenderPassPointOfView, 
                       _kC3DFXRenderPassProgramKey, _kC3DFXRenderPassProgramNameKey, 
                       _kC3DFXRenderPassRenderInColorBuffer, _kC3DFXRenderPassRootNode, 
                       _kC3DFXTechniqueDefault, _kC3DFilter, _kC3DFilterColor, _kC3DFilterImageID, 
                       _kC3DFilterTextureSampler, _kC3DFilterUVSet, _kC3DFiltersKey, 
                       _kC3DFloorPassKey, _kC3DFresnelExponent, _kC3DFunction, _kC3DGenericSourceComponentsTypeKey, 
                       _kC3DGenericSourceDataKey, _kC3DGenericSourceTypeKey, _kC3DGenericSourceValuesCountKey, 
                       _kC3DGeometryGeometryIDKey, _kC3DGeometryKey, _kC3DGeometryMaterialsIDKey, 
                       _kC3DGeometryTypeKey, _kC3DHitTestAllLayers, _kC3DHitTestBackFaceCulling, 
                       _kC3DHitTestBoundingBoxOnly, _kC3DHitTestCategoryBitMask, 
                       _kC3DHitTestClipToZRange, _kC3DHitTestFirstFoundOnly, _kC3DHitTestIgnoreChildNodes, 
                       _kC3DHitTestRootNode, _kC3DHitTestSearchMode, _kC3DHitTestSkipHiddenNode, 
                       _kC3DHitTestSkipTransparentNode, _kC3DHitTestSortResults, 
                       _kC3DIOCreatePropertyListShouldKeepReferencesToFilesOption, 
                       _kC3DIOCreatePropertyListShouldZipOption, _kC3DIOEnclosingDirectoryURL, 
                       _kC3DIOSceneKitErrorDomain, _kC3DIOSceneSourceAnimationLoadingModeKeepSeparate, 
                       _kC3DIOSceneSourceAnimationLoadingModeKey, _kC3DIOSceneSourceAnimationLoadingModePlayOnce, 
                       _kC3DIOSceneSourceAnimationLoadingModePlayRepeatedly, _kC3DIOSceneSourceAnimationLoadingModePlayUsingSceneTime, 
                       _kC3DIOSceneSourceAssetAuthor, _kC3DIOSceneSourceAssetAuthoringTool, 
                       _kC3DIOSceneSourceAssetContributors, _kC3DIOSceneSourceAssetCreated, 
                       _kC3DIOSceneSourceAssetDirectoryURLs, _kC3DIOSceneSourceAssetModified, 
                       _kC3DIOSceneSourceAssetUnit, _kC3DIOSceneSourceAssetUnitMeter, 
                       _kC3DIOSceneSourceAssetUnitName, _kC3DIOSceneSourceAssetUpAxis, 
                       _kC3DIOSceneSourceAutoAdjustInvalidZRange, _kC3DIOSceneSourceAutoLimitMemoryForImages, 
                       _kC3DIOSceneSourceBakeKeyframing, _kC3DIOSceneSourceC3DFormat, 
                       _kC3DIOSceneSourceCOLLADAFormat, _kC3DIOSceneSourceCheckConsistency, 
                       _kC3DIOSceneSourceCleanupMeshes, _kC3DIOSceneSourceConvertToUnit, 
                       _kC3DIOSceneSourceConvertToYUpIfNeeded, _kC3DIOSceneSourceCreateCameraIfAbsent, 
                       _kC3DIOSceneSourceCreateLightIfAbsent, _kC3DIOSceneSourceCreateNewLibrary, 
                       _kC3DIOSceneSourceCreateNormalsIfAbsent, _kC3DIOSceneSourceFlattenScene, 
                       _kC3DIOSceneSourceFormatHint, _kC3DIOSceneSourceInterleaveSources, 
                       _kC3DIOSceneSourceInvertMaterialOpacity, _kC3DIOSceneSourceMakeSourcesCheaper, 
                       _kC3DIOSceneSourceMaximumMemoryForImages, _kC3DIOSceneSourceOverrideAssetURLs, 
                       _kC3DIOSceneSourcePreloadImages, _kC3DIOSceneSourceProcessIsSandboxed, 
                       _kC3DIOSceneSourceRemoveAllLights, _kC3DIOSceneSourceRemoveColorArrays, 
                       _kC3DIOSceneSourceRemoveConstantAnimations, _kC3DIOSceneSourceSkipConsistencyCheck, 
                       _kC3DIOSceneSourceSkipImagePathResolution, _kC3DIOSceneSourceSkipSandboxValidation, 
                       _kC3DIOSceneSourceSplitMeshesForGLES, _kC3DIOSceneSourceStrictConformance, 
                       _kC3DIOSceneSourceTriggerOptionsForRealtimeViewer, _kC3DIOSceneSourceUseSafeMode, 
                       _kC3DIOSceneSourceVerboseMode, _kC3DIOSceneSourceWasExportedBySceneKit, 
                       _kC3DIOSerializationDestinationURL, _kC3DIOSerializationEnclosingFolderURLKey, 
                       _kC3DIOSerializationExportDelegate, _kC3DIOSerializationFormat, 
                       _kC3DIOSerializationFormatMinSupportedVersion, _kC3DIOSerializationFormatMinZippedVersion, 
                       _kC3DIOSerializationFormatReaderMinRequiredVersion, _kC3DIOSerializationFormatVersion, 
                       _kC3DIOSerializationLibrary, _kC3DImageInitFromPath, _kC3DImageLocation, 
                       _kC3DImageRelativePath, _kC3DImageRuntimePath, _kC3DImageTypeKey, 
                       _kC3DIndexOfRefraction, _kC3DKeyframedAnimationTypeKey, _kC3DLibraryStorageKey, 
                       _kC3DLightKey, _kC3DLightTypeKey, _kC3DLightingModelBlinn, 
                       _kC3DLightingModelConstant, _kC3DLightingModelLambert, _kC3DLightingModelNone, 
                       _kC3DLightingModelPhong, _kC3DLightingModelPhysicallyBased, 
                       _kC3DLightmapInfoKey, _kC3DMaterialTypeKey, _kC3DMelonBundleIdentifier, 
                       _kC3DMeshElementFacesCountKey, _kC3DMeshElementIndexesKey, 
                       _kC3DMeshElementTypeKey, _kC3DMeshElementsID, _kC3DMeshElementsKey, 
                       _kC3DMeshElementsTypeKey, _kC3DMeshSourceComponentsPerValueKey, 
                       _kC3DMeshSourceSemanticColorKey, _kC3DMeshSourceSemanticKey, 
                       _kC3DMeshSourceSemanticNormalKey, _kC3DMeshSourceSemanticTexcoordKey, 
                       _kC3DMeshSourceSemanticVertexKey, _kC3DMeshSourceTypeKey, 
                       _kC3DMeshTypeKey, _kC3DMeshVertexArrayDataKey, _kC3DMeshVertexArrayID, 
                       _kC3DMeshVertexArrayMappingChannelsCountKey, _kC3DMeshVertexArrayMappingCountChannel0Key, 
                       _kC3DMeshVertexArrayTypeKey, _kC3DMeshVertexArrayVertexCountKey, 
                       _kC3DMetalness, _kC3DMetalnessUVSet, _kC3DModelPathAmbient, 
                       _kC3DModelPathAmbientOcclusion, _kC3DModelPathAperture, _kC3DModelPathAttenuationEnd, 
                       _kC3DModelPathAttenuationFalloffExponent, _kC3DModelPathAttenuationStart, 
                       _kC3DModelPathAttributes, _kC3DModelPathBackgroundMap, _kC3DModelPathBladeCount, 
                       _kC3DModelPathBorderColor, _kC3DModelPathCamera, _kC3DModelPathColor, 
                       _kC3DModelPathCommonProfile, _kC3DModelPathContents, _kC3DModelPathCullMode, 
                       _kC3DModelPathDOFIntensity, _kC3DModelPathDiffuse, _kC3DModelPathDisplacement, 
                       _kC3DModelPathDoubleSided, _kC3DModelPathEmission, _kC3DModelPathEntityAnimations, 
                       _kC3DModelPathEntityCustomAttribute, _kC3DModelPathEuler, 
                       _kC3DModelPathFirstMaterial, _kC3DModelPathFocalDistance, 
                       _kC3DModelPathFocalSize, _kC3DModelPathFresnelExponent, _kC3DModelPathGeometry, 
                       _kC3DModelPathGobo, _kC3DModelPathHidden, _kC3DModelPathIES, 
                       _kC3DModelPathImage, _kC3DModelPathImageTransform, _kC3DModelPathIndexOfRefraction, 
                       _kC3DModelPathIntensity, _kC3DModelPathLight, _kC3DModelPathLightingEnvironmentMap, 
                       _kC3DModelPathLockAmbientDiffuse, _kC3DModelPathMaterials, 
                       _kC3DModelPathMatrix, _kC3DModelPathMetalness, _kC3DModelPathMorpher, 
                       _kC3DModelPathMultiply, _kC3DModelPathNodeFilters, _kC3DModelPathNormal, 
                       _kC3DModelPathOpacity, _kC3DModelPathOrientation, _kC3DModelPathOrthographicScale, 
                       _kC3DModelPathPerPixelLit, _kC3DModelPathPivot, _kC3DModelPathProjectionTransform, 
                       _kC3DModelPathQuaternion, _kC3DModelPathReflective, _kC3DModelPathRotation, 
                       _kC3DModelPathRoughness, _kC3DModelPathScale, _kC3DModelPathSelfIllumination, 
                       _kC3DModelPathSelfIlluminationOcclusion, _kC3DModelPathShaderModifiers, 
                       _kC3DModelPathShadowColor, _kC3DModelPathShadowRadius, _kC3DModelPathShininess, 
                       _kC3DModelPathSpecular, _kC3DModelPathSpotFalloffExponent, 
                       _kC3DModelPathSpotInnerAngle, _kC3DModelPathSpotOuterAngle, 
                       _kC3DModelPathTexture, _kC3DModelPathTransform, _kC3DModelPathTranslation, 
                       _kC3DModelPathTransparency, _kC3DModelPathTransparent, _kC3DModelPathWeight, 
                       _kC3DModelPathXFov, _kC3DModelPathYFov, _kC3DModelPathZFar, 
                       _kC3DModelPathZNear, _kC3DMorphTypeKey, _kC3DMorpherKey, _kC3DNodeTypeKey, 
                       _kC3DNormal, _kC3DNormalColor, _kC3DNormalImageID, _kC3DNormalKey, 
                       _kC3DNormalTextureSampler, _kC3DNormalUVSet, _kC3DNotificationEngineContextInvalidatePasses, 
                       _kC3DNotificationEngineContextPassesDidUpdate, _kC3DNotificationEngineContextReloadShaders, 
                       _kC3DNotificationEntityAttributeDidChange, _kC3DNotificationGeometryWillDie, 
                       _kC3DNotificationImageProxyWillDie, _kC3DNotificationImageWillDie, 
                       _kC3DNotificationMaterialWillDie, _kC3DNotificationMeshElementWillDie, 
                       _kC3DNotificationMeshSourceWillDie, _kC3DNotificationMeshWillDie, 
                       _kC3DNotificationMorphWillDie, _kC3DNotificationNodeWillDie, 
                       _kC3DNotificationPassWillDie, _kC3DNotificationProfileDidDie, 
                       _kC3DNotificationProfileWillDie, _kC3DNotificationProgramWillDie, 
                       _kC3DNotificationRendererElementProgramHashCodeWillDie, _kC3DNotificationRendererElementWillDie, 
                       _kC3DNotificationSkinWillDie, _kC3DNotificationTextureSamplerWillDie, 
                       _kC3DParticleControllerAnimation, _kC3DParticleControllerVariableBias, 
                       _kC3DParticleControllerVariableMode, _kC3DParticleControllerVariableOrigin, 
                       _kC3DParticleControllerVariableOverDistance, _kC3DParticleControllerVariableOverLife, 
                       _kC3DParticleControllerVariableOverOtherProperty, _kC3DParticleControllerVariableScale, 
                       _kC3DParticleSystemsKey, _kC3DPivotKey, _kC3DPlaneCallBacks, 
                       _kC3DPositionKey, _kC3DPositionSerializationKey, _kC3DPyramidCallBacks, 
                       _kC3DReflective, _kC3DReflectiveColor, _kC3DReflectiveImageID, 
                       _kC3DReflectiveTextureSampler, _kC3DReflectiveUVSet, _kC3DReflectivity, 
                       _kC3DRendererDelegateKey, _kC3DRenderingPriorityKey, _kC3DRoughness, 
                       _kC3DRoughnessUVSet, _kC3DSceneDidUpdateNotification, _kC3DSceneKitErrorDomain, 
                       _kC3DSceneKitRevision, _kC3DSelfIllumination, _kC3DSelfIlluminationUVSet, 
                       _kC3DShaderModifiersKey, _kC3DShininess, _kC3DShininessImageID, 
                       _kC3DShininessTextureSampler, _kC3DShininessUVSet, _kC3DSkinTypeKey, 
                       _kC3DSkinnerKey, _kC3DSkinningJointsKey, _kC3DSkinningWeightsKey, 
                       _kC3DSourceAccessorOffsetKey, _kC3DSourceAccessorPaddingKey, 
                       _kC3DSourceAccessorSourceIDKey, _kC3DSourceAccessorSourceTypeIDKey, 
                       _kC3DSourceAccessorStrideKey, _kC3DSpecular, _kC3DSpecularColor, 
                       _kC3DSpecularImageID, _kC3DSpecularTextureSampler, _kC3DSpecularUVSet, 
                       _kC3DSphereCallBacks, _kC3DSplineKey, _kC3DSupportsWrapModes, 
                       _kC3DTechniqueKey, _kC3DTexBinormalKey, _kC3DTexTangentKey, 
                       _kC3DTexcoordKey, _kC3DTextureSamplerAnisotropy, _kC3DTextureSamplerImageType, 
                       _kC3DTextureSamplerMagFilter, _kC3DTextureSamplerMinFilter, 
                       _kC3DTextureSamplerMipFilter, _kC3DTextureSamplerTextureType, 
                       _kC3DTextureSamplerWrapP, _kC3DTextureSamplerWrapS, _kC3DTextureSamplerWrapT, 
                       _kC3DTextureUnit, _kC3DTimingFunctionDefault, _kC3DTimingFunctionEaseIn, 
                       _kC3DTimingFunctionEaseInEaseOut, _kC3DTimingFunctionEaseOut, 
                       _kC3DTimingFunctionLinear, _kC3DTorusCallBacks, _kC3DTransparency, 
                       _kC3DTransparencyModeKey, _kC3DTransparency_A_ONEValue, _kC3DTransparency_RGB_ZEROValue, 
                       _kC3DTransparent, _kC3DTransparentColor, _kC3DTransparentImageID, 
                       _kC3DTransparentTextureSampler, _kC3DTransparentUVSet, _kC3DTriggerOptionsForRealtimeViewer, 
                       _kC3DTubeCallBacks, _kC3DVertexAttribDefaultNames, _kCFTypeStackCallBacks, 
                       _kCommonProfileFragmentEntryPoint, _kCommonProfilePostTessellationVertexEntryPoint, 
                       _kCommonProfileVertexEntryPoint, _kDefaultBatchMaxSize, _kDynamicBatchingThreshold, 
                       _kSCNTextureSourceCallbackCleanup, _kSCNTextureSourceCallbackGetMetalTexture, 
                       _kStandardFragmentEntryPoint, _kStandardPostTessellationVertexEntryPoint, 
                       _kStandardVertexEntryPoint, _loadMDLAssetWithURL, _newFaceAtEnd, 
                       _nextEventsForOffsetAndSpoke, _s_deferredRegistry, _s_registry, 
                       _scn_NSColorFromCGColorIfApplicable, _scn_default_log, _scn_matrix_compute_normal, 
                       _scn_matrix_fast_invert, _scn_matrix_fast_invert_transpose, 
                       _scn_triangle_point_distance_squared, _splitJoinFace, _srdnoise2, 
                       _srdnoise3, _stencilAction, _stencilEnable ]
    objc-classes:    [ _C3DAnimationBinding, _C3DBinding, _C3DIONSZipFileArchive, 
                       _SCNAccelerationConstraint, _SCNAction, _SCNActionCustom, 
                       _SCNActionFade, _SCNActionGroup, _SCNActionHide, _SCNActionJavaScript, 
                       _SCNActionMove, _SCNActionPerformSelector, _SCNActionPlaySound, 
                       _SCNActionReference, _SCNActionRemove, _SCNActionRepeat, _SCNActionRotate, 
                       _SCNActionRunAction, _SCNActionRunBlock, _SCNActionScale, 
                       _SCNActionSequence, _SCNActionTargetState, _SCNActionWait, 
                       _SCNAnimation, _SCNAnimationEvent, _SCNAnimationPlayer, _SCNAnimationReference, 
                       _SCNAssetCatalog, _SCNAudioPlayer, _SCNAudioSource, _SCNAuthoringEnvironment, 
                       _SCNAuthoringEnvironment2, _SCNAvoidOccluderConstraint, _SCNBillboardConstraint, 
                       _SCNBoundingBox, _SCNBoundingSphere, _SCNBox, _SCNBufferBinding, 
                       _SCNCamera, _SCNCameraControlEventHandler, _SCNCameraController, 
                       _SCNCameraNavigationController, _SCNCapsule, _SCNCommonProfileProgramCache, 
                       _SCNCommonProfileProgramGenerator, _SCNCommonProfileProgramGeneratorGL, 
                       _SCNCone, _SCNConstantScaleConstraint, _SCNConstraint, _SCNCylinder, 
                       _SCNDeferredProgramGeneratorMetal, _SCNDelegateSource, _SCNDisplayLink, 
                       _SCNDistanceConstraint, _SCNEventHandler, _SCNExportOperation, 
                       _SCNFloor, _SCNGeometry, _SCNGeometryElement, _SCNGeometrySource, 
                       _SCNHitTestResult, _SCNIKConstraint, _SCNIKJoint, _SCNImageSource, 
                       _SCNJSImage, _SCNJSValue, _SCNJSValueTmpImp, _SCNJitterer, 
                       _SCNKeyedArchiver, _SCNKeyedUnarchiver, _SCNLayerSource, _SCNLevelOfDetail, 
                       _SCNLight, _SCNLookAtConstraint, _SCNManipulableItem, _SCNManipulator, 
                       _SCNMaterial, _SCNMaterialAttachment, _SCNMaterialProperty, 
                       _SCNMorpher, _SCNMovieExportOperation, _SCNMutableGeometry, 
                       _SCNMutableGeometrySource, _SCNNode, _SCNNodeComponent, _SCNNodeManipulableItem, 
                       _SCNNodeReference, _SCNNodeWeakComponent, _SCNOffscreenRenderer, 
                       _SCNOrderedDictionary, _SCNParticlePropertyController, _SCNParticleSystem, 
                       _SCNPhysicsBallSocketJoint, _SCNPhysicsBehavior, _SCNPhysicsBody, 
                       _SCNPhysicsCharacter, _SCNPhysicsConeTwistJoint, _SCNPhysicsContact, 
                       _SCNPhysicsCustomField, _SCNPhysicsDragField, _SCNPhysicsElectricField, 
                       _SCNPhysicsField, _SCNPhysicsHingeJoint, _SCNPhysicsLinearGravityField, 
                       _SCNPhysicsMagneticField, _SCNPhysicsNoiseField, _SCNPhysicsRadialGravityField, 
                       _SCNPhysicsShape, _SCNPhysicsSliderJoint, _SCNPhysicsSpringField, 
                       _SCNPhysicsTurbulenceField, _SCNPhysicsVehicle, _SCNPhysicsVehicleWheel, 
                       _SCNPhysicsVortexField, _SCNPhysicsWorld, _SCNPlane, _SCNProgram, 
                       _SCNProgramSemanticInfo, _SCNPyramid, _SCNReferenceNode, _SCNRenderContextImp, 
                       _SCNRenderContextOpenGL, _SCNRenderTarget, _SCNRenderTargetRegistry, 
                       _SCNRenderer, _SCNRendererTransitionContext, _SCNReplicatorConstraint, 
                       _SCNScene, _SCNSceneDatabase, _SCNSceneLookUpUnarchiver, _SCNSceneSource, 
                       _SCNShadableHelper, _SCNShape, _SCNSkinner, _SCNSliderConstraint, 
                       _SCNSourceRendererRegistry, _SCNSphere, _SCNSpriteKitEventHandler, 
                       _SCNSpriteKitSource, _SCNTechnique, _SCNText, _SCNTextureDelegateSource, 
                       _SCNTextureLayerSource, _SCNTextureOffscreenRenderingSource, 
                       _SCNTextureSource, _SCNTextureSpriteKitSource, _SCNTextureUIKitSource, 
                       _SCNTimingFunction, _SCNTorus, _SCNTransaction, _SCNTransformConstraint, 
                       _SCNTube, _SCNUIKitSource, _SCNView, _SCNWeakPointer, _SCN_CAKeyframeAnimation, 
                       __C3DProgressDebugger, __SCNExportOperation, __SCNShadableCompilationIssue, 
                       __SCNSnapshotWindow, __SCNUIApplicationObserver, __SCNUIKitSourceRegistry ]
...
